Archive member included to satisfy reference by file (symbol)

../ccs/Debug/driverlib.lib(gpio.obj)
                              ./main.o (GPIOPinConfigure)
../ccs/Debug/driverlib.lib(i2c.obj)
                              ./main.o (I2CMasterDataPut)
../ccs/Debug/driverlib.lib(interrupt.obj)
                              ../ccs/Debug/driverlib.lib(gpio.obj) (IntEnable)
../ccs/Debug/driverlib.lib(sysctl.obj)
                              ./main.o (SysCtlClockSet)
../ccs/Debug/driverlib.lib(cpu.obj)
                              ../ccs/Debug/driverlib.lib(interrupt.obj) (CPUbasepriGet)
/home/tech/ti/ccsv7/tools/compiler/gcc-arm-none-eabi-6-2017-q1-update/bin/../lib/gcc/arm-none-eabi/6.3.1/../../../../arm-none-eabi/lib/thumb/v7e-m/fpv4-sp/hard/libc.a(lib_a-atof.o)
                              ./main.o (atof)
/home/tech/ti/ccsv7/tools/compiler/gcc-arm-none-eabi-6-2017-q1-update/bin/../lib/gcc/arm-none-eabi/6.3.1/../../../../arm-none-eabi/lib/thumb/v7e-m/fpv4-sp/hard/libc.a(lib_a-atol.o)
                              ./main.o (atol)
/home/tech/ti/ccsv7/tools/compiler/gcc-arm-none-eabi-6-2017-q1-update/bin/../lib/gcc/arm-none-eabi/6.3.1/../../../../arm-none-eabi/lib/thumb/v7e-m/fpv4-sp/hard/libc.a(lib_a-exit.o)
                              /home/tech/ti/ccsv7/tools/compiler/gcc-arm-none-eabi-6-2017-q1-update/bin/../lib/gcc/arm-none-eabi/6.3.1/../../../../arm-none-eabi/lib/thumb/v7e-m/fpv4-sp/hard/crt0.o (exit)
/home/tech/ti/ccsv7/tools/compiler/gcc-arm-none-eabi-6-2017-q1-update/bin/../lib/gcc/arm-none-eabi/6.3.1/../../../../arm-none-eabi/lib/thumb/v7e-m/fpv4-sp/hard/libc.a(lib_a-impure.o)
                              /home/tech/ti/ccsv7/tools/compiler/gcc-arm-none-eabi-6-2017-q1-update/bin/../lib/gcc/arm-none-eabi/6.3.1/../../../../arm-none-eabi/lib/thumb/v7e-m/fpv4-sp/hard/libc.a(lib_a-exit.o) (_global_impure_ptr)
/home/tech/ti/ccsv7/tools/compiler/gcc-arm-none-eabi-6-2017-q1-update/bin/../lib/gcc/arm-none-eabi/6.3.1/../../../../arm-none-eabi/lib/thumb/v7e-m/fpv4-sp/hard/libc.a(lib_a-init.o)
                              /home/tech/ti/ccsv7/tools/compiler/gcc-arm-none-eabi-6-2017-q1-update/bin/../lib/gcc/arm-none-eabi/6.3.1/../../../../arm-none-eabi/lib/thumb/v7e-m/fpv4-sp/hard/crt0.o (__libc_init_array)
/home/tech/ti/ccsv7/tools/compiler/gcc-arm-none-eabi-6-2017-q1-update/bin/../lib/gcc/arm-none-eabi/6.3.1/../../../../arm-none-eabi/lib/thumb/v7e-m/fpv4-sp/hard/libc.a(lib_a-memset.o)
                              /home/tech/ti/ccsv7/tools/compiler/gcc-arm-none-eabi-6-2017-q1-update/bin/../lib/gcc/arm-none-eabi/6.3.1/../../../../arm-none-eabi/lib/thumb/v7e-m/fpv4-sp/hard/crt0.o (memset)
/home/tech/ti/ccsv7/tools/compiler/gcc-arm-none-eabi-6-2017-q1-update/bin/../lib/gcc/arm-none-eabi/6.3.1/../../../../arm-none-eabi/lib/thumb/v7e-m/fpv4-sp/hard/libc.a(lib_a-printf.o)
                              ./main.o (printf)
/home/tech/ti/ccsv7/tools/compiler/gcc-arm-none-eabi-6-2017-q1-update/bin/../lib/gcc/arm-none-eabi/6.3.1/../../../../arm-none-eabi/lib/thumb/v7e-m/fpv4-sp/hard/libc.a(lib_a-putchar.o)
                              ./main.o (putchar)
/home/tech/ti/ccsv7/tools/compiler/gcc-arm-none-eabi-6-2017-q1-update/bin/../lib/gcc/arm-none-eabi/6.3.1/../../../../arm-none-eabi/lib/thumb/v7e-m/fpv4-sp/hard/libc.a(lib_a-sprintf.o)
                              ./main.o (sprintf)
/home/tech/ti/ccsv7/tools/compiler/gcc-arm-none-eabi-6-2017-q1-update/bin/../lib/gcc/arm-none-eabi/6.3.1/../../../../arm-none-eabi/lib/thumb/v7e-m/fpv4-sp/hard/libc.a(lib_a-strtod.o)
                              /home/tech/ti/ccsv7/tools/compiler/gcc-arm-none-eabi-6-2017-q1-update/bin/../lib/gcc/arm-none-eabi/6.3.1/../../../../arm-none-eabi/lib/thumb/v7e-m/fpv4-sp/hard/libc.a(lib_a-atof.o) (strtod)
/home/tech/ti/ccsv7/tools/compiler/gcc-arm-none-eabi-6-2017-q1-update/bin/../lib/gcc/arm-none-eabi/6.3.1/../../../../arm-none-eabi/lib/thumb/v7e-m/fpv4-sp/hard/libc.a(lib_a-strtol.o)
                              /home/tech/ti/ccsv7/tools/compiler/gcc-arm-none-eabi-6-2017-q1-update/bin/../lib/gcc/arm-none-eabi/6.3.1/../../../../arm-none-eabi/lib/thumb/v7e-m/fpv4-sp/hard/libc.a(lib_a-atol.o) (_strtol_r)
/home/tech/ti/ccsv7/tools/compiler/gcc-arm-none-eabi-6-2017-q1-update/bin/../lib/gcc/arm-none-eabi/6.3.1/../../../../arm-none-eabi/lib/thumb/v7e-m/fpv4-sp/hard/libc.a(lib_a-svfprintf.o)
                              /home/tech/ti/ccsv7/tools/compiler/gcc-arm-none-eabi-6-2017-q1-update/bin/../lib/gcc/arm-none-eabi/6.3.1/../../../../arm-none-eabi/lib/thumb/v7e-m/fpv4-sp/hard/libc.a(lib_a-sprintf.o) (_svfprintf_r)
/home/tech/ti/ccsv7/tools/compiler/gcc-arm-none-eabi-6-2017-q1-update/bin/../lib/gcc/arm-none-eabi/6.3.1/../../../../arm-none-eabi/lib/thumb/v7e-m/fpv4-sp/hard/libc.a(lib_a-vfprintf.o)
                              /home/tech/ti/ccsv7/tools/compiler/gcc-arm-none-eabi-6-2017-q1-update/bin/../lib/gcc/arm-none-eabi/6.3.1/../../../../arm-none-eabi/lib/thumb/v7e-m/fpv4-sp/hard/libc.a(lib_a-printf.o) (_vfprintf_r)
/home/tech/ti/ccsv7/tools/compiler/gcc-arm-none-eabi-6-2017-q1-update/bin/../lib/gcc/arm-none-eabi/6.3.1/../../../../arm-none-eabi/lib/thumb/v7e-m/fpv4-sp/hard/libc.a(lib_a-wsetup.o)
                              /home/tech/ti/ccsv7/tools/compiler/gcc-arm-none-eabi-6-2017-q1-update/bin/../lib/gcc/arm-none-eabi/6.3.1/../../../../arm-none-eabi/lib/thumb/v7e-m/fpv4-sp/hard/libc.a(lib_a-vfprintf.o) (__swsetup_r)
/home/tech/ti/ccsv7/tools/compiler/gcc-arm-none-eabi-6-2017-q1-update/bin/../lib/gcc/arm-none-eabi/6.3.1/../../../../arm-none-eabi/lib/thumb/v7e-m/fpv4-sp/hard/libc.a(lib_a-__call_atexit.o)
                              /home/tech/ti/ccsv7/tools/compiler/gcc-arm-none-eabi-6-2017-q1-update/bin/../lib/gcc/arm-none-eabi/6.3.1/../../../../arm-none-eabi/lib/thumb/v7e-m/fpv4-sp/hard/libc.a(lib_a-exit.o) (__call_exitprocs)
/home/tech/ti/ccsv7/tools/compiler/gcc-arm-none-eabi-6-2017-q1-update/bin/../lib/gcc/arm-none-eabi/6.3.1/../../../../arm-none-eabi/lib/thumb/v7e-m/fpv4-sp/hard/libc.a(lib_a-atexit.o)
                              /home/tech/ti/ccsv7/tools/compiler/gcc-arm-none-eabi-6-2017-q1-update/bin/../lib/gcc/arm-none-eabi/6.3.1/../../../../arm-none-eabi/lib/thumb/v7e-m/fpv4-sp/hard/libc.a(lib_a-__call_atexit.o) (atexit)
/home/tech/ti/ccsv7/tools/compiler/gcc-arm-none-eabi-6-2017-q1-update/bin/../lib/gcc/arm-none-eabi/6.3.1/../../../../arm-none-eabi/lib/thumb/v7e-m/fpv4-sp/hard/libc.a(lib_a-dtoa.o)
                              /home/tech/ti/ccsv7/tools/compiler/gcc-arm-none-eabi-6-2017-q1-update/bin/../lib/gcc/arm-none-eabi/6.3.1/../../../../arm-none-eabi/lib/thumb/v7e-m/fpv4-sp/hard/libc.a(lib_a-svfprintf.o) (_dtoa_r)
/home/tech/ti/ccsv7/tools/compiler/gcc-arm-none-eabi-6-2017-q1-update/bin/../lib/gcc/arm-none-eabi/6.3.1/../../../../arm-none-eabi/lib/thumb/v7e-m/fpv4-sp/hard/libc.a(lib_a-fflush.o)
                              /home/tech/ti/ccsv7/tools/compiler/gcc-arm-none-eabi-6-2017-q1-update/bin/../lib/gcc/arm-none-eabi/6.3.1/../../../../arm-none-eabi/lib/thumb/v7e-m/fpv4-sp/hard/libc.a(lib_a-vfprintf.o) (_fflush_r)
/home/tech/ti/ccsv7/tools/compiler/gcc-arm-none-eabi-6-2017-q1-update/bin/../lib/gcc/arm-none-eabi/6.3.1/../../../../arm-none-eabi/lib/thumb/v7e-m/fpv4-sp/hard/libc.a(lib_a-findfp.o)
                              /home/tech/ti/ccsv7/tools/compiler/gcc-arm-none-eabi-6-2017-q1-update/bin/../lib/gcc/arm-none-eabi/6.3.1/../../../../arm-none-eabi/lib/thumb/v7e-m/fpv4-sp/hard/libc.a(lib_a-vfprintf.o) (__sinit)
/home/tech/ti/ccsv7/tools/compiler/gcc-arm-none-eabi-6-2017-q1-update/bin/../lib/gcc/arm-none-eabi/6.3.1/../../../../arm-none-eabi/lib/thumb/v7e-m/fpv4-sp/hard/libc.a(lib_a-fini.o)
                              /home/tech/ti/ccsv7/tools/compiler/gcc-arm-none-eabi-6-2017-q1-update/bin/../lib/gcc/arm-none-eabi/6.3.1/../../../../arm-none-eabi/lib/thumb/v7e-m/fpv4-sp/hard/libc.a(lib_a-__call_atexit.o) (__libc_fini_array)
/home/tech/ti/ccsv7/tools/compiler/gcc-arm-none-eabi-6-2017-q1-update/bin/../lib/gcc/arm-none-eabi/6.3.1/../../../../arm-none-eabi/lib/thumb/v7e-m/fpv4-sp/hard/libc.a(lib_a-freer.o)
                              /home/tech/ti/ccsv7/tools/compiler/gcc-arm-none-eabi-6-2017-q1-update/bin/../lib/gcc/arm-none-eabi/6.3.1/../../../../arm-none-eabi/lib/thumb/v7e-m/fpv4-sp/hard/libc.a(lib_a-wsetup.o) (_free_r)
/home/tech/ti/ccsv7/tools/compiler/gcc-arm-none-eabi-6-2017-q1-update/bin/../lib/gcc/arm-none-eabi/6.3.1/../../../../arm-none-eabi/lib/thumb/v7e-m/fpv4-sp/hard/libc.a(lib_a-fwalk.o)
                              /home/tech/ti/ccsv7/tools/compiler/gcc-arm-none-eabi-6-2017-q1-update/bin/../lib/gcc/arm-none-eabi/6.3.1/../../../../arm-none-eabi/lib/thumb/v7e-m/fpv4-sp/hard/libc.a(lib_a-findfp.o) (_fwalk)
/home/tech/ti/ccsv7/tools/compiler/gcc-arm-none-eabi-6-2017-q1-update/bin/../lib/gcc/arm-none-eabi/6.3.1/../../../../arm-none-eabi/lib/thumb/v7e-m/fpv4-sp/hard/libc.a(lib_a-gdtoa-gethex.o)
                              /home/tech/ti/ccsv7/tools/compiler/gcc-arm-none-eabi-6-2017-q1-update/bin/../lib/gcc/arm-none-eabi/6.3.1/../../../../arm-none-eabi/lib/thumb/v7e-m/fpv4-sp/hard/libc.a(lib_a-strtod.o) (__gethex)
/home/tech/ti/ccsv7/tools/compiler/gcc-arm-none-eabi-6-2017-q1-update/bin/../lib/gcc/arm-none-eabi/6.3.1/../../../../arm-none-eabi/lib/thumb/v7e-m/fpv4-sp/hard/libc.a(lib_a-gdtoa-hexnan.o)
                              /home/tech/ti/ccsv7/tools/compiler/gcc-arm-none-eabi-6-2017-q1-update/bin/../lib/gcc/arm-none-eabi/6.3.1/../../../../arm-none-eabi/lib/thumb/v7e-m/fpv4-sp/hard/libc.a(lib_a-strtod.o) (__match)
/home/tech/ti/ccsv7/tools/compiler/gcc-arm-none-eabi-6-2017-q1-update/bin/../lib/gcc/arm-none-eabi/6.3.1/../../../../arm-none-eabi/lib/thumb/v7e-m/fpv4-sp/hard/libc.a(lib_a-locale.o)
                              /home/tech/ti/ccsv7/tools/compiler/gcc-arm-none-eabi-6-2017-q1-update/bin/../lib/gcc/arm-none-eabi/6.3.1/../../../../arm-none-eabi/lib/thumb/v7e-m/fpv4-sp/hard/libc.a(lib_a-strtol.o) (__locale_ctype_ptr_l)
/home/tech/ti/ccsv7/tools/compiler/gcc-arm-none-eabi-6-2017-q1-update/bin/../lib/gcc/arm-none-eabi/6.3.1/../../../../arm-none-eabi/lib/thumb/v7e-m/fpv4-sp/hard/libc.a(lib_a-localeconv.o)
                              /home/tech/ti/ccsv7/tools/compiler/gcc-arm-none-eabi-6-2017-q1-update/bin/../lib/gcc/arm-none-eabi/6.3.1/../../../../arm-none-eabi/lib/thumb/v7e-m/fpv4-sp/hard/libc.a(lib_a-strtod.o) (__localeconv_l)
/home/tech/ti/ccsv7/tools/compiler/gcc-arm-none-eabi-6-2017-q1-update/bin/../lib/gcc/arm-none-eabi/6.3.1/../../../../arm-none-eabi/lib/thumb/v7e-m/fpv4-sp/hard/libc.a(lib_a-lock.o)
                              /home/tech/ti/ccsv7/tools/compiler/gcc-arm-none-eabi-6-2017-q1-update/bin/../lib/gcc/arm-none-eabi/6.3.1/../../../../arm-none-eabi/lib/thumb/v7e-m/fpv4-sp/hard/libc.a(lib_a-vfprintf.o) (__retarget_lock_init_recursive)
/home/tech/ti/ccsv7/tools/compiler/gcc-arm-none-eabi-6-2017-q1-update/bin/../lib/gcc/arm-none-eabi/6.3.1/../../../../arm-none-eabi/lib/thumb/v7e-m/fpv4-sp/hard/libc.a(lib_a-makebuf.o)
                              /home/tech/ti/ccsv7/tools/compiler/gcc-arm-none-eabi-6-2017-q1-update/bin/../lib/gcc/arm-none-eabi/6.3.1/../../../../arm-none-eabi/lib/thumb/v7e-m/fpv4-sp/hard/libc.a(lib_a-wsetup.o) (__smakebuf_r)
/home/tech/ti/ccsv7/tools/compiler/gcc-arm-none-eabi-6-2017-q1-update/bin/../lib/gcc/arm-none-eabi/6.3.1/../../../../arm-none-eabi/lib/thumb/v7e-m/fpv4-sp/hard/libc.a(lib_a-mallocr.o)
                              /home/tech/ti/ccsv7/tools/compiler/gcc-arm-none-eabi-6-2017-q1-update/bin/../lib/gcc/arm-none-eabi/6.3.1/../../../../arm-none-eabi/lib/thumb/v7e-m/fpv4-sp/hard/libc.a(lib_a-svfprintf.o) (_malloc_r)
/home/tech/ti/ccsv7/tools/compiler/gcc-arm-none-eabi-6-2017-q1-update/bin/../lib/gcc/arm-none-eabi/6.3.1/../../../../arm-none-eabi/lib/thumb/v7e-m/fpv4-sp/hard/libc.a(lib_a-mbtowc_r.o)
                              /home/tech/ti/ccsv7/tools/compiler/gcc-arm-none-eabi-6-2017-q1-update/bin/../lib/gcc/arm-none-eabi/6.3.1/../../../../arm-none-eabi/lib/thumb/v7e-m/fpv4-sp/hard/libc.a(lib_a-locale.o) (__ascii_mbtowc)
/home/tech/ti/ccsv7/tools/compiler/gcc-arm-none-eabi-6-2017-q1-update/bin/../lib/gcc/arm-none-eabi/6.3.1/../../../../arm-none-eabi/lib/thumb/v7e-m/fpv4-sp/hard/libc.a(lib_a-memchr.o)
                              /home/tech/ti/ccsv7/tools/compiler/gcc-arm-none-eabi-6-2017-q1-update/bin/../lib/gcc/arm-none-eabi/6.3.1/../../../../arm-none-eabi/lib/thumb/v7e-m/fpv4-sp/hard/libc.a(lib_a-svfprintf.o) (memchr)
/home/tech/ti/ccsv7/tools/compiler/gcc-arm-none-eabi-6-2017-q1-update/bin/../lib/gcc/arm-none-eabi/6.3.1/../../../../arm-none-eabi/lib/thumb/v7e-m/fpv4-sp/hard/libc.a(lib_a-memcpy.o)
                              /home/tech/ti/ccsv7/tools/compiler/gcc-arm-none-eabi-6-2017-q1-update/bin/../lib/gcc/arm-none-eabi/6.3.1/../../../../arm-none-eabi/lib/thumb/v7e-m/fpv4-sp/hard/libc.a(lib_a-strtod.o) (memcpy)
/home/tech/ti/ccsv7/tools/compiler/gcc-arm-none-eabi-6-2017-q1-update/bin/../lib/gcc/arm-none-eabi/6.3.1/../../../../arm-none-eabi/lib/thumb/v7e-m/fpv4-sp/hard/libc.a(lib_a-mlock.o)
                              /home/tech/ti/ccsv7/tools/compiler/gcc-arm-none-eabi-6-2017-q1-update/bin/../lib/gcc/arm-none-eabi/6.3.1/../../../../arm-none-eabi/lib/thumb/v7e-m/fpv4-sp/hard/libc.a(lib_a-freer.o) (__malloc_lock)
/home/tech/ti/ccsv7/tools/compiler/gcc-arm-none-eabi-6-2017-q1-update/bin/../lib/gcc/arm-none-eabi/6.3.1/../../../../arm-none-eabi/lib/thumb/v7e-m/fpv4-sp/hard/libc.a(lib_a-mprec.o)
                              /home/tech/ti/ccsv7/tools/compiler/gcc-arm-none-eabi-6-2017-q1-update/bin/../lib/gcc/arm-none-eabi/6.3.1/../../../../arm-none-eabi/lib/thumb/v7e-m/fpv4-sp/hard/libc.a(lib_a-strtod.o) (_Balloc)
/home/tech/ti/ccsv7/tools/compiler/gcc-arm-none-eabi-6-2017-q1-update/bin/../lib/gcc/arm-none-eabi/6.3.1/../../../../arm-none-eabi/lib/thumb/v7e-m/fpv4-sp/hard/libc.a(lib_a-putc.o)
                              /home/tech/ti/ccsv7/tools/compiler/gcc-arm-none-eabi-6-2017-q1-update/bin/../lib/gcc/arm-none-eabi/6.3.1/../../../../arm-none-eabi/lib/thumb/v7e-m/fpv4-sp/hard/libc.a(lib_a-putchar.o) (_putc_r)
/home/tech/ti/ccsv7/tools/compiler/gcc-arm-none-eabi-6-2017-q1-update/bin/../lib/gcc/arm-none-eabi/6.3.1/../../../../arm-none-eabi/lib/thumb/v7e-m/fpv4-sp/hard/libc.a(lib_a-sbrkr.o)
                              /home/tech/ti/ccsv7/tools/compiler/gcc-arm-none-eabi-6-2017-q1-update/bin/../lib/gcc/arm-none-eabi/6.3.1/../../../../arm-none-eabi/lib/thumb/v7e-m/fpv4-sp/hard/libc.a(lib_a-freer.o) (_sbrk_r)
/home/tech/ti/ccsv7/tools/compiler/gcc-arm-none-eabi-6-2017-q1-update/bin/../lib/gcc/arm-none-eabi/6.3.1/../../../../arm-none-eabi/lib/thumb/v7e-m/fpv4-sp/hard/libc.a(lib_a-sf_nan.o)
                              /home/tech/ti/ccsv7/tools/compiler/gcc-arm-none-eabi-6-2017-q1-update/bin/../lib/gcc/arm-none-eabi/6.3.1/../../../../arm-none-eabi/lib/thumb/v7e-m/fpv4-sp/hard/libc.a(lib_a-strtod.o) (nanf)
/home/tech/ti/ccsv7/tools/compiler/gcc-arm-none-eabi-6-2017-q1-update/bin/../lib/gcc/arm-none-eabi/6.3.1/../../../../arm-none-eabi/lib/thumb/v7e-m/fpv4-sp/hard/libc.a(lib_a-stdio.o)
                              /home/tech/ti/ccsv7/tools/compiler/gcc-arm-none-eabi-6-2017-q1-update/bin/../lib/gcc/arm-none-eabi/6.3.1/../../../../arm-none-eabi/lib/thumb/v7e-m/fpv4-sp/hard/libc.a(lib_a-findfp.o) (__sread)
/home/tech/ti/ccsv7/tools/compiler/gcc-arm-none-eabi-6-2017-q1-update/bin/../lib/gcc/arm-none-eabi/6.3.1/../../../../arm-none-eabi/lib/thumb/v7e-m/fpv4-sp/hard/libc.a(lib_a-strcmp.o)
                              /home/tech/ti/ccsv7/tools/compiler/gcc-arm-none-eabi-6-2017-q1-update/bin/../lib/gcc/arm-none-eabi/6.3.1/../../../../arm-none-eabi/lib/thumb/v7e-m/fpv4-sp/hard/libc.a(lib_a-locale.o) (strcmp)
/home/tech/ti/ccsv7/tools/compiler/gcc-arm-none-eabi-6-2017-q1-update/bin/../lib/gcc/arm-none-eabi/6.3.1/../../../../arm-none-eabi/lib/thumb/v7e-m/fpv4-sp/hard/libc.a(lib_a-strlen.o)
                              /home/tech/ti/ccsv7/tools/compiler/gcc-arm-none-eabi-6-2017-q1-update/bin/../lib/gcc/arm-none-eabi/6.3.1/../../../../arm-none-eabi/lib/thumb/v7e-m/fpv4-sp/hard/libc.a(lib_a-strtod.o) (strlen)
/home/tech/ti/ccsv7/tools/compiler/gcc-arm-none-eabi-6-2017-q1-update/bin/../lib/gcc/arm-none-eabi/6.3.1/../../../../arm-none-eabi/lib/thumb/v7e-m/fpv4-sp/hard/libc.a(lib_a-strncmp.o)
                              /home/tech/ti/ccsv7/tools/compiler/gcc-arm-none-eabi-6-2017-q1-update/bin/../lib/gcc/arm-none-eabi/6.3.1/../../../../arm-none-eabi/lib/thumb/v7e-m/fpv4-sp/hard/libc.a(lib_a-strtod.o) (strncmp)
/home/tech/ti/ccsv7/tools/compiler/gcc-arm-none-eabi-6-2017-q1-update/bin/../lib/gcc/arm-none-eabi/6.3.1/../../../../arm-none-eabi/lib/thumb/v7e-m/fpv4-sp/hard/libc.a(lib_a-svfiprintf.o)
                              /home/tech/ti/ccsv7/tools/compiler/gcc-arm-none-eabi-6-2017-q1-update/bin/../lib/gcc/arm-none-eabi/6.3.1/../../../../arm-none-eabi/lib/thumb/v7e-m/fpv4-sp/hard/libc.a(lib_a-svfprintf.o) (__ssprint_r)
/home/tech/ti/ccsv7/tools/compiler/gcc-arm-none-eabi-6-2017-q1-update/bin/../lib/gcc/arm-none-eabi/6.3.1/../../../../arm-none-eabi/lib/thumb/v7e-m/fpv4-sp/hard/libc.a(lib_a-vfiprintf.o)
                              /home/tech/ti/ccsv7/tools/compiler/gcc-arm-none-eabi-6-2017-q1-update/bin/../lib/gcc/arm-none-eabi/6.3.1/../../../../arm-none-eabi/lib/thumb/v7e-m/fpv4-sp/hard/libc.a(lib_a-vfprintf.o) (__sprint_r)
/home/tech/ti/ccsv7/tools/compiler/gcc-arm-none-eabi-6-2017-q1-update/bin/../lib/gcc/arm-none-eabi/6.3.1/../../../../arm-none-eabi/lib/thumb/v7e-m/fpv4-sp/hard/libc.a(lib_a-wbuf.o)
                              /home/tech/ti/ccsv7/tools/compiler/gcc-arm-none-eabi-6-2017-q1-update/bin/../lib/gcc/arm-none-eabi/6.3.1/../../../../arm-none-eabi/lib/thumb/v7e-m/fpv4-sp/hard/libc.a(lib_a-putc.o) (__swbuf_r)
/home/tech/ti/ccsv7/tools/compiler/gcc-arm-none-eabi-6-2017-q1-update/bin/../lib/gcc/arm-none-eabi/6.3.1/../../../../arm-none-eabi/lib/thumb/v7e-m/fpv4-sp/hard/libc.a(lib_a-wctomb_r.o)
                              /home/tech/ti/ccsv7/tools/compiler/gcc-arm-none-eabi-6-2017-q1-update/bin/../lib/gcc/arm-none-eabi/6.3.1/../../../../arm-none-eabi/lib/thumb/v7e-m/fpv4-sp/hard/libc.a(lib_a-locale.o) (__ascii_wctomb)
/home/tech/ti/ccsv7/tools/compiler/gcc-arm-none-eabi-6-2017-q1-update/bin/../lib/gcc/arm-none-eabi/6.3.1/../../../../arm-none-eabi/lib/thumb/v7e-m/fpv4-sp/hard/libc.a(lib_a-writer.o)
                              /home/tech/ti/ccsv7/tools/compiler/gcc-arm-none-eabi-6-2017-q1-update/bin/../lib/gcc/arm-none-eabi/6.3.1/../../../../arm-none-eabi/lib/thumb/v7e-m/fpv4-sp/hard/libc.a(lib_a-stdio.o) (_write_r)
/home/tech/ti/ccsv7/tools/compiler/gcc-arm-none-eabi-6-2017-q1-update/bin/../lib/gcc/arm-none-eabi/6.3.1/../../../../arm-none-eabi/lib/thumb/v7e-m/fpv4-sp/hard/libc.a(lib_a-__atexit.o)
                              /home/tech/ti/ccsv7/tools/compiler/gcc-arm-none-eabi-6-2017-q1-update/bin/../lib/gcc/arm-none-eabi/6.3.1/../../../../arm-none-eabi/lib/thumb/v7e-m/fpv4-sp/hard/libc.a(lib_a-atexit.o) (__register_exitproc)
/home/tech/ti/ccsv7/tools/compiler/gcc-arm-none-eabi-6-2017-q1-update/bin/../lib/gcc/arm-none-eabi/6.3.1/../../../../arm-none-eabi/lib/thumb/v7e-m/fpv4-sp/hard/libc.a(lib_a-callocr.o)
                              /home/tech/ti/ccsv7/tools/compiler/gcc-arm-none-eabi-6-2017-q1-update/bin/../lib/gcc/arm-none-eabi/6.3.1/../../../../arm-none-eabi/lib/thumb/v7e-m/fpv4-sp/hard/libc.a(lib_a-mprec.o) (_calloc_r)
/home/tech/ti/ccsv7/tools/compiler/gcc-arm-none-eabi-6-2017-q1-update/bin/../lib/gcc/arm-none-eabi/6.3.1/../../../../arm-none-eabi/lib/thumb/v7e-m/fpv4-sp/hard/libc.a(lib_a-closer.o)
                              /home/tech/ti/ccsv7/tools/compiler/gcc-arm-none-eabi-6-2017-q1-update/bin/../lib/gcc/arm-none-eabi/6.3.1/../../../../arm-none-eabi/lib/thumb/v7e-m/fpv4-sp/hard/libc.a(lib_a-stdio.o) (_close_r)
/home/tech/ti/ccsv7/tools/compiler/gcc-arm-none-eabi-6-2017-q1-update/bin/../lib/gcc/arm-none-eabi/6.3.1/../../../../arm-none-eabi/lib/thumb/v7e-m/fpv4-sp/hard/libc.a(lib_a-ctype_.o)
                              /home/tech/ti/ccsv7/tools/compiler/gcc-arm-none-eabi-6-2017-q1-update/bin/../lib/gcc/arm-none-eabi/6.3.1/../../../../arm-none-eabi/lib/thumb/v7e-m/fpv4-sp/hard/libc.a(lib_a-locale.o) (_ctype_)
/home/tech/ti/ccsv7/tools/compiler/gcc-arm-none-eabi-6-2017-q1-update/bin/../lib/gcc/arm-none-eabi/6.3.1/../../../../arm-none-eabi/lib/thumb/v7e-m/fpv4-sp/hard/libc.a(lib_a-fclose.o)
                              /home/tech/ti/ccsv7/tools/compiler/gcc-arm-none-eabi-6-2017-q1-update/bin/../lib/gcc/arm-none-eabi/6.3.1/../../../../arm-none-eabi/lib/thumb/v7e-m/fpv4-sp/hard/libc.a(lib_a-findfp.o) (_fclose_r)
/home/tech/ti/ccsv7/tools/compiler/gcc-arm-none-eabi-6-2017-q1-update/bin/../lib/gcc/arm-none-eabi/6.3.1/../../../../arm-none-eabi/lib/thumb/v7e-m/fpv4-sp/hard/libc.a(lib_a-fputwc.o)
                              /home/tech/ti/ccsv7/tools/compiler/gcc-arm-none-eabi-6-2017-q1-update/bin/../lib/gcc/arm-none-eabi/6.3.1/../../../../arm-none-eabi/lib/thumb/v7e-m/fpv4-sp/hard/libc.a(lib_a-vfiprintf.o) (_fputwc_r)
/home/tech/ti/ccsv7/tools/compiler/gcc-arm-none-eabi-6-2017-q1-update/bin/../lib/gcc/arm-none-eabi/6.3.1/../../../../arm-none-eabi/lib/thumb/v7e-m/fpv4-sp/hard/libc.a(lib_a-fstatr.o)
                              /home/tech/ti/ccsv7/tools/compiler/gcc-arm-none-eabi-6-2017-q1-update/bin/../lib/gcc/arm-none-eabi/6.3.1/../../../../arm-none-eabi/lib/thumb/v7e-m/fpv4-sp/hard/libc.a(lib_a-makebuf.o) (_fstat_r)
/home/tech/ti/ccsv7/tools/compiler/gcc-arm-none-eabi-6-2017-q1-update/bin/../lib/gcc/arm-none-eabi/6.3.1/../../../../arm-none-eabi/lib/thumb/v7e-m/fpv4-sp/hard/libc.a(lib_a-fvwrite.o)
                              /home/tech/ti/ccsv7/tools/compiler/gcc-arm-none-eabi-6-2017-q1-update/bin/../lib/gcc/arm-none-eabi/6.3.1/../../../../arm-none-eabi/lib/thumb/v7e-m/fpv4-sp/hard/libc.a(lib_a-vfiprintf.o) (__sfvwrite_r)
/home/tech/ti/ccsv7/tools/compiler/gcc-arm-none-eabi-6-2017-q1-update/bin/../lib/gcc/arm-none-eabi/6.3.1/../../../../arm-none-eabi/lib/thumb/v7e-m/fpv4-sp/hard/libc.a(lib_a-isattyr.o)
                              /home/tech/ti/ccsv7/tools/compiler/gcc-arm-none-eabi-6-2017-q1-update/bin/../lib/gcc/arm-none-eabi/6.3.1/../../../../arm-none-eabi/lib/thumb/v7e-m/fpv4-sp/hard/libc.a(lib_a-makebuf.o) (_isatty_r)
/home/tech/ti/ccsv7/tools/compiler/gcc-arm-none-eabi-6-2017-q1-update/bin/../lib/gcc/arm-none-eabi/6.3.1/../../../../arm-none-eabi/lib/thumb/v7e-m/fpv4-sp/hard/libc.a(lib_a-lseekr.o)
                              /home/tech/ti/ccsv7/tools/compiler/gcc-arm-none-eabi-6-2017-q1-update/bin/../lib/gcc/arm-none-eabi/6.3.1/../../../../arm-none-eabi/lib/thumb/v7e-m/fpv4-sp/hard/libc.a(lib_a-stdio.o) (_lseek_r)
/home/tech/ti/ccsv7/tools/compiler/gcc-arm-none-eabi-6-2017-q1-update/bin/../lib/gcc/arm-none-eabi/6.3.1/../../../../arm-none-eabi/lib/thumb/v7e-m/fpv4-sp/hard/libc.a(lib_a-memmove.o)
                              /home/tech/ti/ccsv7/tools/compiler/gcc-arm-none-eabi-6-2017-q1-update/bin/../lib/gcc/arm-none-eabi/6.3.1/../../../../arm-none-eabi/lib/thumb/v7e-m/fpv4-sp/hard/libc.a(lib_a-svfiprintf.o) (memmove)
/home/tech/ti/ccsv7/tools/compiler/gcc-arm-none-eabi-6-2017-q1-update/bin/../lib/gcc/arm-none-eabi/6.3.1/../../../../arm-none-eabi/lib/thumb/v7e-m/fpv4-sp/hard/libc.a(lib_a-readr.o)
                              /home/tech/ti/ccsv7/tools/compiler/gcc-arm-none-eabi-6-2017-q1-update/bin/../lib/gcc/arm-none-eabi/6.3.1/../../../../arm-none-eabi/lib/thumb/v7e-m/fpv4-sp/hard/libc.a(lib_a-stdio.o) (_read_r)
/home/tech/ti/ccsv7/tools/compiler/gcc-arm-none-eabi-6-2017-q1-update/bin/../lib/gcc/arm-none-eabi/6.3.1/../../../../arm-none-eabi/lib/thumb/v7e-m/fpv4-sp/hard/libc.a(lib_a-reallocr.o)
                              /home/tech/ti/ccsv7/tools/compiler/gcc-arm-none-eabi-6-2017-q1-update/bin/../lib/gcc/arm-none-eabi/6.3.1/../../../../arm-none-eabi/lib/thumb/v7e-m/fpv4-sp/hard/libc.a(lib_a-svfiprintf.o) (_realloc_r)
/home/tech/ti/ccsv7/tools/compiler/gcc-arm-none-eabi-6-2017-q1-update/bin/../lib/gcc/arm-none-eabi/6.3.1/../../../../arm-none-eabi/lib/thumb/v7e-m/fpv4-sp/hard/libc.a(lib_a-reent.o)
                              /home/tech/ti/ccsv7/tools/compiler/gcc-arm-none-eabi-6-2017-q1-update/bin/../lib/gcc/arm-none-eabi/6.3.1/../../../../arm-none-eabi/lib/thumb/v7e-m/fpv4-sp/hard/libc.a(lib_a-sbrkr.o) (errno)
/home/tech/ti/ccsv7/tools/compiler/gcc-arm-none-eabi-6-2017-q1-update/bin/../lib/gcc/arm-none-eabi/6.3.1/../../../../arm-none-eabi/lib/thumb/v7e-m/fpv4-sp/hard/libc.a(lib_a-wcrtomb.o)
                              /home/tech/ti/ccsv7/tools/compiler/gcc-arm-none-eabi-6-2017-q1-update/bin/../lib/gcc/arm-none-eabi/6.3.1/../../../../arm-none-eabi/lib/thumb/v7e-m/fpv4-sp/hard/libc.a(lib_a-fputwc.o) (_wcrtomb_r)
/home/tech/ti/ccsv7/tools/compiler/gcc-arm-none-eabi-6-2017-q1-update/bin/../lib/gcc/arm-none-eabi/6.3.1/../../../../arm-none-eabi/lib/thumb/v7e-m/fpv4-sp/hard/librdimon.a(rdimon-syscalls.o)
                              /home/tech/ti/ccsv7/tools/compiler/gcc-arm-none-eabi-6-2017-q1-update/bin/../lib/gcc/arm-none-eabi/6.3.1/../../../../arm-none-eabi/lib/thumb/v7e-m/fpv4-sp/hard/libc.a(lib_a-readr.o) (_read)
/home/tech/ti/ccsv7/tools/compiler/gcc-arm-none-eabi-6-2017-q1-update/bin/../lib/gcc/arm-none-eabi/6.3.1/../../../../arm-none-eabi/lib/thumb/v7e-m/fpv4-sp/hard/librdimon.a(rdimon-_exit.o)
                              /home/tech/ti/ccsv7/tools/compiler/gcc-arm-none-eabi-6-2017-q1-update/bin/../lib/gcc/arm-none-eabi/6.3.1/../../../../arm-none-eabi/lib/thumb/v7e-m/fpv4-sp/hard/libc.a(lib_a-exit.o) (_exit)
/home/tech/ti/ccsv7/tools/compiler/gcc-arm-none-eabi-6-2017-q1-update/bin/../lib/gcc/arm-none-eabi/6.3.1/../../../../arm-none-eabi/lib/thumb/v7e-m/fpv4-sp/hard/librdimon.a(rdimon-_kill.o)
                              /home/tech/ti/ccsv7/tools/compiler/gcc-arm-none-eabi-6-2017-q1-update/bin/../lib/gcc/arm-none-eabi/6.3.1/../../../../arm-none-eabi/lib/thumb/v7e-m/fpv4-sp/hard/librdimon.a(rdimon-_exit.o) (_kill)
/home/tech/ti/ccsv7/tools/compiler/gcc-arm-none-eabi-6-2017-q1-update/bin/../lib/gcc/arm-none-eabi/6.3.1/../../../../arm-none-eabi/lib/thumb/v7e-m/fpv4-sp/hard/libc.a(lib_a-errno.o)
                              /home/tech/ti/ccsv7/tools/compiler/gcc-arm-none-eabi-6-2017-q1-update/bin/../lib/gcc/arm-none-eabi/6.3.1/../../../../arm-none-eabi/lib/thumb/v7e-m/fpv4-sp/hard/librdimon.a(rdimon-syscalls.o) (__errno)
/home/tech/ti/ccsv7/tools/compiler/gcc-arm-none-eabi-6-2017-q1-update/bin/../lib/gcc/arm-none-eabi/6.3.1/thumb/v7e-m/fpv4-sp/hard/libgcc.a(_arm_addsubdf3.o)
                              ./main.o (__aeabi_dsub)
/home/tech/ti/ccsv7/tools/compiler/gcc-arm-none-eabi-6-2017-q1-update/bin/../lib/gcc/arm-none-eabi/6.3.1/thumb/v7e-m/fpv4-sp/hard/libgcc.a(_arm_muldivdf3.o)
                              ./main.o (__aeabi_dmul)
/home/tech/ti/ccsv7/tools/compiler/gcc-arm-none-eabi-6-2017-q1-update/bin/../lib/gcc/arm-none-eabi/6.3.1/thumb/v7e-m/fpv4-sp/hard/libgcc.a(_arm_cmpdf2.o)
                              ./main.o (__aeabi_dcmpeq)
/home/tech/ti/ccsv7/tools/compiler/gcc-arm-none-eabi-6-2017-q1-update/bin/../lib/gcc/arm-none-eabi/6.3.1/thumb/v7e-m/fpv4-sp/hard/libgcc.a(_arm_unorddf2.o)
                              /home/tech/ti/ccsv7/tools/compiler/gcc-arm-none-eabi-6-2017-q1-update/bin/../lib/gcc/arm-none-eabi/6.3.1/../../../../arm-none-eabi/lib/thumb/v7e-m/fpv4-sp/hard/libc.a(lib_a-strtod.o) (__aeabi_dcmpun)
/home/tech/ti/ccsv7/tools/compiler/gcc-arm-none-eabi-6-2017-q1-update/bin/../lib/gcc/arm-none-eabi/6.3.1/thumb/v7e-m/fpv4-sp/hard/libgcc.a(_arm_fixdfsi.o)
                              ./main.o (__aeabi_d2iz)
/home/tech/ti/ccsv7/tools/compiler/gcc-arm-none-eabi-6-2017-q1-update/bin/../lib/gcc/arm-none-eabi/6.3.1/thumb/v7e-m/fpv4-sp/hard/libgcc.a(_arm_fixunsdfsi.o)
                              /home/tech/ti/ccsv7/tools/compiler/gcc-arm-none-eabi-6-2017-q1-update/bin/../lib/gcc/arm-none-eabi/6.3.1/../../../../arm-none-eabi/lib/thumb/v7e-m/fpv4-sp/hard/libc.a(lib_a-strtod.o) (__aeabi_d2uiz)
/home/tech/ti/ccsv7/tools/compiler/gcc-arm-none-eabi-6-2017-q1-update/bin/../lib/gcc/arm-none-eabi/6.3.1/thumb/v7e-m/fpv4-sp/hard/libgcc.a(_arm_truncdfsf2.o)
                              ./main.o (__aeabi_d2f)
/home/tech/ti/ccsv7/tools/compiler/gcc-arm-none-eabi-6-2017-q1-update/bin/../lib/gcc/arm-none-eabi/6.3.1/thumb/v7e-m/fpv4-sp/hard/libgcc.a(_aeabi_uldivmod.o)
                              /home/tech/ti/ccsv7/tools/compiler/gcc-arm-none-eabi-6-2017-q1-update/bin/../lib/gcc/arm-none-eabi/6.3.1/../../../../arm-none-eabi/lib/thumb/v7e-m/fpv4-sp/hard/libc.a(lib_a-svfprintf.o) (__aeabi_uldivmod)
/home/tech/ti/ccsv7/tools/compiler/gcc-arm-none-eabi-6-2017-q1-update/bin/../lib/gcc/arm-none-eabi/6.3.1/thumb/v7e-m/fpv4-sp/hard/libgcc.a(_udivmoddi4.o)
                              /home/tech/ti/ccsv7/tools/compiler/gcc-arm-none-eabi-6-2017-q1-update/bin/../lib/gcc/arm-none-eabi/6.3.1/thumb/v7e-m/fpv4-sp/hard/libgcc.a(_aeabi_uldivmod.o) (__udivmoddi4)
/home/tech/ti/ccsv7/tools/compiler/gcc-arm-none-eabi-6-2017-q1-update/bin/../lib/gcc/arm-none-eabi/6.3.1/thumb/v7e-m/fpv4-sp/hard/libgcc.a(_dvmd_tls.o)
                              /home/tech/ti/ccsv7/tools/compiler/gcc-arm-none-eabi-6-2017-q1-update/bin/../lib/gcc/arm-none-eabi/6.3.1/thumb/v7e-m/fpv4-sp/hard/libgcc.a(_aeabi_uldivmod.o) (__aeabi_ldiv0)

Allocating common symbols
Common symbol       size              file

__lock___atexit_recursive_mutex
                    0x1               /home/tech/ti/ccsv7/tools/compiler/gcc-arm-none-eabi-6-2017-q1-update/bin/../lib/gcc/arm-none-eabi/6.3.1/../../../../arm-none-eabi/lib/thumb/v7e-m/fpv4-sp/hard/libc.a(lib_a-lock.o)
__lock___arc4random_mutex
                    0x1               /home/tech/ti/ccsv7/tools/compiler/gcc-arm-none-eabi-6-2017-q1-update/bin/../lib/gcc/arm-none-eabi/6.3.1/../../../../arm-none-eabi/lib/thumb/v7e-m/fpv4-sp/hard/libc.a(lib_a-lock.o)
GGA_Buffer          0x50              ./main.o
errno               0x4               /home/tech/ti/ccsv7/tools/compiler/gcc-arm-none-eabi-6-2017-q1-update/bin/../lib/gcc/arm-none-eabi/6.3.1/../../../../arm-none-eabi/lib/thumb/v7e-m/fpv4-sp/hard/libc.a(lib_a-reent.o)
__lock___env_recursive_mutex
                    0x1               /home/tech/ti/ccsv7/tools/compiler/gcc-arm-none-eabi-6-2017-q1-update/bin/../lib/gcc/arm-none-eabi/6.3.1/../../../../arm-none-eabi/lib/thumb/v7e-m/fpv4-sp/hard/libc.a(lib_a-lock.o)
__lock___sinit_recursive_mutex
                    0x1               /home/tech/ti/ccsv7/tools/compiler/gcc-arm-none-eabi-6-2017-q1-update/bin/../lib/gcc/arm-none-eabi/6.3.1/../../../../arm-none-eabi/lib/thumb/v7e-m/fpv4-sp/hard/libc.a(lib_a-lock.o)
zg                  0x4               ./main.o
za                  0x4               ./main.o
T                   0x4               ./main.o
E_W                 0x1               ./main.o
__lock___malloc_recursive_mutex
                    0x1               /home/tech/ti/ccsv7/tools/compiler/gcc-arm-none-eabi-6-2017-q1-update/bin/../lib/gcc/arm-none-eabi/6.3.1/../../../../arm-none-eabi/lib/thumb/v7e-m/fpv4-sp/hard/libc.a(lib_a-lock.o)
CommaCounter        0x1               ./main.o
GGA_Index           0x4               ./main.o
xa                  0x4               ./main.o
GGA_CODE            0x3               ./main.o
__lock___at_quick_exit_mutex
                    0x1               /home/tech/ti/ccsv7/tools/compiler/gcc-arm-none-eabi-6-2017-q1-update/bin/../lib/gcc/arm-none-eabi/6.3.1/../../../../arm-none-eabi/lib/thumb/v7e-m/fpv4-sp/hard/libc.a(lib_a-lock.o)
GGA_Pointers        0x14              ./main.o
yg                  0x4               ./main.o
Data_Buffer         0xf               ./main.o
__lock___dd_hash_mutex
                    0x1               /home/tech/ti/ccsv7/tools/compiler/gcc-arm-none-eabi-6-2017-q1-update/bin/../lib/gcc/arm-none-eabi/6.3.1/../../../../arm-none-eabi/lib/thumb/v7e-m/fpv4-sp/hard/libc.a(lib_a-lock.o)
__lock___tz_mutex   0x1               /home/tech/ti/ccsv7/tools/compiler/gcc-arm-none-eabi-6-2017-q1-update/bin/../lib/gcc/arm-none-eabi/6.3.1/../../../../arm-none-eabi/lib/thumb/v7e-m/fpv4-sp/hard/libc.a(lib_a-lock.o)
xg                  0x4               ./main.o
ya                  0x4               ./main.o
N_S                 0x1               ./main.o
__lock___sfp_recursive_mutex
                    0x1               /home/tech/ti/ccsv7/tools/compiler/gcc-arm-none-eabi-6-2017-q1-update/bin/../lib/gcc/arm-none-eabi/6.3.1/../../../../arm-none-eabi/lib/thumb/v7e-m/fpv4-sp/hard/libc.a(lib_a-lock.o)

Discarded input sections

 __TI_DW.debug_info.$base_types.a3001db55c69772f4e2efd565078122a
                0x0000000000000000       0x18 ../ccs/Debug/driverlib.lib(gpio.obj)
 __TI_DW.debug_info.stdint.h.066348b889ca56249dcd34de01246954
                0x0000000000000000       0x18 ../ccs/Debug/driverlib.lib(gpio.obj)
 __TI_DW.debug_info.yvals.h.3104962cf0c0d1dd116d97cae467d0f3
                0x0000000000000000       0x18 ../ccs/Debug/driverlib.lib(gpio.obj)
 __TI_DW.debug_info.gpio.c.01c54feb4d96f1088c327d0c6aab3c40
                0x0000000000000000       0x18 ../ccs/Debug/driverlib.lib(gpio.obj)
 __TI_DW.debug_info.stdarg.h.94a6efd7e0ac1e1539e5ef9b3dac1248
                0x0000000000000000       0x18 ../ccs/Debug/driverlib.lib(gpio.obj)
 __TI_DW.debug_info.$base_types.a3001db55c69772f4e2efd565078122a
                0x0000000000000000       0x18 ../ccs/Debug/driverlib.lib(i2c.obj)
 __TI_DW.debug_info.stdint.h.066348b889ca56249dcd34de01246954
                0x0000000000000000       0x18 ../ccs/Debug/driverlib.lib(i2c.obj)
 __TI_DW.debug_info.yvals.h.3104962cf0c0d1dd116d97cae467d0f3
                0x0000000000000000       0x18 ../ccs/Debug/driverlib.lib(i2c.obj)
 __TI_DW.debug_info.i2c.c.44a7eca4a3d0e7f6dab8479760346d67
                0x0000000000000000       0x18 ../ccs/Debug/driverlib.lib(i2c.obj)
 __TI_DW.debug_info.stdarg.h.94a6efd7e0ac1e1539e5ef9b3dac1248
                0x0000000000000000       0x18 ../ccs/Debug/driverlib.lib(i2c.obj)
 .debug_info    0x0000000000000000       0x8b ../ccs/Debug/driverlib.lib(i2c.obj)
 .debug_info    0x0000000000000000      0x18b ../ccs/Debug/driverlib.lib(i2c.obj)
 .debug_info    0x0000000000000000       0xa7 ../ccs/Debug/driverlib.lib(i2c.obj)
 .debug_info    0x0000000000000000       0x4e ../ccs/Debug/driverlib.lib(i2c.obj)
 .debug_line    0x0000000000000000       0x20 ../ccs/Debug/driverlib.lib(i2c.obj)
 .debug_line    0x0000000000000000       0x69 ../ccs/Debug/driverlib.lib(i2c.obj)
 .debug_line    0x0000000000000000       0x68 ../ccs/Debug/driverlib.lib(i2c.obj)
 .debug_line    0x0000000000000000       0x69 ../ccs/Debug/driverlib.lib(i2c.obj)
 .debug_abbrev  0x0000000000000000       0x1f ../ccs/Debug/driverlib.lib(i2c.obj)
 .debug_str     0x0000000000000000       0xf5 ../ccs/Debug/driverlib.lib(i2c.obj)
 .debug_abbrev  0x0000000000000000       0x35 ../ccs/Debug/driverlib.lib(i2c.obj)
 .debug_str     0x0000000000000000      0x241 ../ccs/Debug/driverlib.lib(i2c.obj)
 .debug_abbrev  0x0000000000000000       0x35 ../ccs/Debug/driverlib.lib(i2c.obj)
 .debug_str     0x0000000000000000      0x154 ../ccs/Debug/driverlib.lib(i2c.obj)
 .debug_abbrev  0x0000000000000000       0x4b ../ccs/Debug/driverlib.lib(i2c.obj)
 .debug_str     0x0000000000000000      0x114 ../ccs/Debug/driverlib.lib(i2c.obj)
 .debug_pubtypes
                0x0000000000000000       0xff ../ccs/Debug/driverlib.lib(i2c.obj)
 .debug_pubtypes
                0x0000000000000000      0x1c6 ../ccs/Debug/driverlib.lib(i2c.obj)
 .debug_pubtypes
                0x0000000000000000       0x92 ../ccs/Debug/driverlib.lib(i2c.obj)
 .debug_pubtypes
                0x0000000000000000       0x2c ../ccs/Debug/driverlib.lib(i2c.obj)
 __TI_DW.debug_info.$base_types.a3001db55c69772f4e2efd565078122a
                0x0000000000000000       0x18 ../ccs/Debug/driverlib.lib(interrupt.obj)
 __TI_DW.debug_info.stdint.h.066348b889ca56249dcd34de01246954
                0x0000000000000000       0x18 ../ccs/Debug/driverlib.lib(interrupt.obj)
 __TI_DW.debug_info.yvals.h.3104962cf0c0d1dd116d97cae467d0f3
                0x0000000000000000       0x18 ../ccs/Debug/driverlib.lib(interrupt.obj)
 __TI_DW.debug_info.interrupt.c.9c39c5dc2ccfcac9c4c94c196b180166
                0x0000000000000000       0x18 ../ccs/Debug/driverlib.lib(interrupt.obj)
 __TI_DW.debug_info.stdarg.h.94a6efd7e0ac1e1539e5ef9b3dac1248
                0x0000000000000000       0x18 ../ccs/Debug/driverlib.lib(interrupt.obj)
 .debug_info    0x0000000000000000       0x8b ../ccs/Debug/driverlib.lib(interrupt.obj)
 .debug_info    0x0000000000000000      0x18b ../ccs/Debug/driverlib.lib(interrupt.obj)
 .debug_info    0x0000000000000000       0xa7 ../ccs/Debug/driverlib.lib(interrupt.obj)
 .debug_info    0x0000000000000000       0x4e ../ccs/Debug/driverlib.lib(interrupt.obj)
 .debug_line    0x0000000000000000       0x20 ../ccs/Debug/driverlib.lib(interrupt.obj)
 .debug_line    0x0000000000000000       0x69 ../ccs/Debug/driverlib.lib(interrupt.obj)
 .debug_line    0x0000000000000000       0x68 ../ccs/Debug/driverlib.lib(interrupt.obj)
 .debug_line    0x0000000000000000       0x69 ../ccs/Debug/driverlib.lib(interrupt.obj)
 .debug_abbrev  0x0000000000000000       0x1f ../ccs/Debug/driverlib.lib(interrupt.obj)
 .debug_str     0x0000000000000000       0xf5 ../ccs/Debug/driverlib.lib(interrupt.obj)
 .debug_abbrev  0x0000000000000000       0x35 ../ccs/Debug/driverlib.lib(interrupt.obj)
 .debug_str     0x0000000000000000      0x241 ../ccs/Debug/driverlib.lib(interrupt.obj)
 .debug_abbrev  0x0000000000000000       0x35 ../ccs/Debug/driverlib.lib(interrupt.obj)
 .debug_str     0x0000000000000000      0x154 ../ccs/Debug/driverlib.lib(interrupt.obj)
 .debug_abbrev  0x0000000000000000       0x4b ../ccs/Debug/driverlib.lib(interrupt.obj)
 .debug_str     0x0000000000000000      0x114 ../ccs/Debug/driverlib.lib(interrupt.obj)
 .debug_pubtypes
                0x0000000000000000       0xff ../ccs/Debug/driverlib.lib(interrupt.obj)
 .debug_pubtypes
                0x0000000000000000      0x1c6 ../ccs/Debug/driverlib.lib(interrupt.obj)
 .debug_pubtypes
                0x0000000000000000       0x92 ../ccs/Debug/driverlib.lib(interrupt.obj)
 .debug_pubtypes
                0x0000000000000000       0x2c ../ccs/Debug/driverlib.lib(interrupt.obj)
 __TI_DW.debug_info.sysctl.c.a265d9d1903ab544f4f3a947619a8ee7
                0x0000000000000000       0x18 ../ccs/Debug/driverlib.lib(sysctl.obj)
 __TI_DW.debug_info.$base_types.a3001db55c69772f4e2efd565078122a
                0x0000000000000000       0x18 ../ccs/Debug/driverlib.lib(sysctl.obj)
 __TI_DW.debug_info.stdint.h.066348b889ca56249dcd34de01246954
                0x0000000000000000       0x18 ../ccs/Debug/driverlib.lib(sysctl.obj)
 __TI_DW.debug_info.yvals.h.3104962cf0c0d1dd116d97cae467d0f3
                0x0000000000000000       0x18 ../ccs/Debug/driverlib.lib(sysctl.obj)
 __TI_DW.debug_info.stdarg.h.94a6efd7e0ac1e1539e5ef9b3dac1248
                0x0000000000000000       0x18 ../ccs/Debug/driverlib.lib(sysctl.obj)
 .debug_info    0x0000000000000000       0x8b ../ccs/Debug/driverlib.lib(sysctl.obj)
 .debug_info    0x0000000000000000      0x18b ../ccs/Debug/driverlib.lib(sysctl.obj)
 .debug_info    0x0000000000000000       0xa7 ../ccs/Debug/driverlib.lib(sysctl.obj)
 .debug_info    0x0000000000000000       0x4e ../ccs/Debug/driverlib.lib(sysctl.obj)
 .debug_line    0x0000000000000000       0x20 ../ccs/Debug/driverlib.lib(sysctl.obj)
 .debug_line    0x0000000000000000       0x69 ../ccs/Debug/driverlib.lib(sysctl.obj)
 .debug_line    0x0000000000000000       0x68 ../ccs/Debug/driverlib.lib(sysctl.obj)
 .debug_line    0x0000000000000000       0x69 ../ccs/Debug/driverlib.lib(sysctl.obj)
 .debug_abbrev  0x0000000000000000       0x1f ../ccs/Debug/driverlib.lib(sysctl.obj)
 .debug_str     0x0000000000000000       0xf5 ../ccs/Debug/driverlib.lib(sysctl.obj)
 .debug_abbrev  0x0000000000000000       0x35 ../ccs/Debug/driverlib.lib(sysctl.obj)
 .debug_str     0x0000000000000000      0x241 ../ccs/Debug/driverlib.lib(sysctl.obj)
 .debug_abbrev  0x0000000000000000       0x35 ../ccs/Debug/driverlib.lib(sysctl.obj)
 .debug_str     0x0000000000000000      0x154 ../ccs/Debug/driverlib.lib(sysctl.obj)
 .debug_abbrev  0x0000000000000000       0x4b ../ccs/Debug/driverlib.lib(sysctl.obj)
 .debug_str     0x0000000000000000      0x114 ../ccs/Debug/driverlib.lib(sysctl.obj)
 .debug_pubtypes
                0x0000000000000000       0xff ../ccs/Debug/driverlib.lib(sysctl.obj)
 .debug_pubtypes
                0x0000000000000000      0x1c6 ../ccs/Debug/driverlib.lib(sysctl.obj)
 .debug_pubtypes
                0x0000000000000000       0x92 ../ccs/Debug/driverlib.lib(sysctl.obj)
 .debug_pubtypes
                0x0000000000000000       0x2c ../ccs/Debug/driverlib.lib(sysctl.obj)
 __TI_DW.debug_info.$base_types.c8c38483d660372cd06395436475430b
                0x0000000000000000       0x18 ../ccs/Debug/driverlib.lib(cpu.obj)
 __TI_DW.debug_info.stdint.h.066348b889ca56249dcd34de01246954
                0x0000000000000000       0x18 ../ccs/Debug/driverlib.lib(cpu.obj)
 __TI_DW.debug_info.cpu.c.2c258bef3018e3b4a3c5a50564de3197
                0x0000000000000000       0x18 ../ccs/Debug/driverlib.lib(cpu.obj)
 .debug_info    0x0000000000000000      0x18b ../ccs/Debug/driverlib.lib(cpu.obj)
 .debug_line    0x0000000000000000       0x69 ../ccs/Debug/driverlib.lib(cpu.obj)
 .debug_abbrev  0x0000000000000000       0x35 ../ccs/Debug/driverlib.lib(cpu.obj)
 .debug_str     0x0000000000000000      0x241 ../ccs/Debug/driverlib.lib(cpu.obj)
 .debug_pubtypes
                0x0000000000000000      0x1c6 ../ccs/Debug/driverlib.lib(cpu.obj)

Memory Configuration

Name             Origin             Length             Attributes
FLASH            0x0000000000000000 0x0000000000040000 xr
SRAM             0x0000000020000000 0x0000000000008000 xw
*default*        0x0000000000000000 0xffffffffffffffff

Linker script and memory map

LOAD /home/tech/ti/ccsv7/tools/compiler/gcc-arm-none-eabi-6-2017-q1-update/bin/../lib/gcc/arm-none-eabi/6.3.1/thumb/v7e-m/fpv4-sp/hard/crti.o
LOAD /home/tech/ti/ccsv7/tools/compiler/gcc-arm-none-eabi-6-2017-q1-update/bin/../lib/gcc/arm-none-eabi/6.3.1/thumb/v7e-m/fpv4-sp/hard/crtbegin.o
LOAD /home/tech/ti/ccsv7/tools/compiler/gcc-arm-none-eabi-6-2017-q1-update/bin/../lib/gcc/arm-none-eabi/6.3.1/../../../../arm-none-eabi/lib/thumb/v7e-m/fpv4-sp/hard/crt0.o
LOAD ./main.o
LOAD ./tm4c123gh6pm_startup_ccs_gcc.o
                0x0000000000000000                PROVIDE (_intvecs_base_address, 0x0)

.intvecs        0x0000000000000000      0x26c
 *(.intvecs)
 .intvecs       0x0000000000000000      0x26c ./tm4c123gh6pm_startup_ccs_gcc.o
                0x0000000000000000                g_pfnVectors
                0x0000000020000000                PROVIDE (_vtable_base_address, 0x20000000)

.vtable         0x0000000020000000      0x26c
 *(.vtable)
 *fill*         0x0000000020000000        0x0 
 .vtable        0x0000000020000000      0x26c ../ccs/Debug/driverlib.lib(interrupt.obj)
                0x0000000020000000                g_pfnRAMVectors

.text           0x0000000000000280     0xce78
 CREATE_OBJECT_SYMBOLS
 *(.text)
 .text          0x0000000000000280        0x0 /home/tech/ti/ccsv7/tools/compiler/gcc-arm-none-eabi-6-2017-q1-update/bin/../lib/gcc/arm-none-eabi/6.3.1/thumb/v7e-m/fpv4-sp/hard/crti.o
 .text          0x0000000000000280       0x6c /home/tech/ti/ccsv7/tools/compiler/gcc-arm-none-eabi-6-2017-q1-update/bin/../lib/gcc/arm-none-eabi/6.3.1/thumb/v7e-m/fpv4-sp/hard/crtbegin.o
 .text          0x00000000000002ec       0x74 /home/tech/ti/ccsv7/tools/compiler/gcc-arm-none-eabi-6-2017-q1-update/bin/../lib/gcc/arm-none-eabi/6.3.1/../../../../arm-none-eabi/lib/thumb/v7e-m/fpv4-sp/hard/crt0.o
                0x00000000000002ec                _mainCRTStartup
                0x00000000000002ec                _start
 .text          0x0000000000000360        0x0 ./main.o
 .text          0x0000000000000360        0x0 ./tm4c123gh6pm_startup_ccs_gcc.o
 .text          0x0000000000000360        0x0 ../ccs/Debug/driverlib.lib(gpio.obj)
 .text          0x0000000000000360        0x0 ../ccs/Debug/driverlib.lib(i2c.obj)
 .text          0x0000000000000360        0x0 ../ccs/Debug/driverlib.lib(interrupt.obj)
 .text          0x0000000000000360        0x0 ../ccs/Debug/driverlib.lib(sysctl.obj)
 .text          0x0000000000000360        0x0 ../ccs/Debug/driverlib.lib(cpu.obj)
 .text          0x0000000000000360        0x0 /home/tech/ti/ccsv7/tools/compiler/gcc-arm-none-eabi-6-2017-q1-update/bin/../lib/gcc/arm-none-eabi/6.3.1/../../../../arm-none-eabi/lib/thumb/v7e-m/fpv4-sp/hard/libc.a(lib_a-atof.o)
 .text          0x0000000000000360        0x0 /home/tech/ti/ccsv7/tools/compiler/gcc-arm-none-eabi-6-2017-q1-update/bin/../lib/gcc/arm-none-eabi/6.3.1/../../../../arm-none-eabi/lib/thumb/v7e-m/fpv4-sp/hard/libc.a(lib_a-atol.o)
 .text          0x0000000000000360        0x0 /home/tech/ti/ccsv7/tools/compiler/gcc-arm-none-eabi-6-2017-q1-update/bin/../lib/gcc/arm-none-eabi/6.3.1/../../../../arm-none-eabi/lib/thumb/v7e-m/fpv4-sp/hard/libc.a(lib_a-exit.o)
 .text          0x0000000000000360        0x0 /home/tech/ti/ccsv7/tools/compiler/gcc-arm-none-eabi-6-2017-q1-update/bin/../lib/gcc/arm-none-eabi/6.3.1/../../../../arm-none-eabi/lib/thumb/v7e-m/fpv4-sp/hard/libc.a(lib_a-impure.o)
 .text          0x0000000000000360        0x0 /home/tech/ti/ccsv7/tools/compiler/gcc-arm-none-eabi-6-2017-q1-update/bin/../lib/gcc/arm-none-eabi/6.3.1/../../../../arm-none-eabi/lib/thumb/v7e-m/fpv4-sp/hard/libc.a(lib_a-init.o)
 .text          0x0000000000000360        0x0 /home/tech/ti/ccsv7/tools/compiler/gcc-arm-none-eabi-6-2017-q1-update/bin/../lib/gcc/arm-none-eabi/6.3.1/../../../../arm-none-eabi/lib/thumb/v7e-m/fpv4-sp/hard/libc.a(lib_a-memset.o)
 .text          0x0000000000000360        0x0 /home/tech/ti/ccsv7/tools/compiler/gcc-arm-none-eabi-6-2017-q1-update/bin/../lib/gcc/arm-none-eabi/6.3.1/../../../../arm-none-eabi/lib/thumb/v7e-m/fpv4-sp/hard/libc.a(lib_a-printf.o)
 .text          0x0000000000000360        0x0 /home/tech/ti/ccsv7/tools/compiler/gcc-arm-none-eabi-6-2017-q1-update/bin/../lib/gcc/arm-none-eabi/6.3.1/../../../../arm-none-eabi/lib/thumb/v7e-m/fpv4-sp/hard/libc.a(lib_a-putchar.o)
 .text          0x0000000000000360        0x0 /home/tech/ti/ccsv7/tools/compiler/gcc-arm-none-eabi-6-2017-q1-update/bin/../lib/gcc/arm-none-eabi/6.3.1/../../../../arm-none-eabi/lib/thumb/v7e-m/fpv4-sp/hard/libc.a(lib_a-sprintf.o)
 .text          0x0000000000000360        0x0 /home/tech/ti/ccsv7/tools/compiler/gcc-arm-none-eabi-6-2017-q1-update/bin/../lib/gcc/arm-none-eabi/6.3.1/../../../../arm-none-eabi/lib/thumb/v7e-m/fpv4-sp/hard/libc.a(lib_a-strtod.o)
 .text          0x0000000000000360        0x0 /home/tech/ti/ccsv7/tools/compiler/gcc-arm-none-eabi-6-2017-q1-update/bin/../lib/gcc/arm-none-eabi/6.3.1/../../../../arm-none-eabi/lib/thumb/v7e-m/fpv4-sp/hard/libc.a(lib_a-strtol.o)
 .text          0x0000000000000360        0x0 /home/tech/ti/ccsv7/tools/compiler/gcc-arm-none-eabi-6-2017-q1-update/bin/../lib/gcc/arm-none-eabi/6.3.1/../../../../arm-none-eabi/lib/thumb/v7e-m/fpv4-sp/hard/libc.a(lib_a-svfprintf.o)
 .text          0x0000000000000360        0x0 /home/tech/ti/ccsv7/tools/compiler/gcc-arm-none-eabi-6-2017-q1-update/bin/../lib/gcc/arm-none-eabi/6.3.1/../../../../arm-none-eabi/lib/thumb/v7e-m/fpv4-sp/hard/libc.a(lib_a-vfprintf.o)
 .text          0x0000000000000360        0x0 /home/tech/ti/ccsv7/tools/compiler/gcc-arm-none-eabi-6-2017-q1-update/bin/../lib/gcc/arm-none-eabi/6.3.1/../../../../arm-none-eabi/lib/thumb/v7e-m/fpv4-sp/hard/libc.a(lib_a-wsetup.o)
 .text          0x0000000000000360        0x0 /home/tech/ti/ccsv7/tools/compiler/gcc-arm-none-eabi-6-2017-q1-update/bin/../lib/gcc/arm-none-eabi/6.3.1/../../../../arm-none-eabi/lib/thumb/v7e-m/fpv4-sp/hard/libc.a(lib_a-__call_atexit.o)
 .text          0x0000000000000360        0x0 /home/tech/ti/ccsv7/tools/compiler/gcc-arm-none-eabi-6-2017-q1-update/bin/../lib/gcc/arm-none-eabi/6.3.1/../../../../arm-none-eabi/lib/thumb/v7e-m/fpv4-sp/hard/libc.a(lib_a-atexit.o)
 .text          0x0000000000000360        0x0 /home/tech/ti/ccsv7/tools/compiler/gcc-arm-none-eabi-6-2017-q1-update/bin/../lib/gcc/arm-none-eabi/6.3.1/../../../../arm-none-eabi/lib/thumb/v7e-m/fpv4-sp/hard/libc.a(lib_a-dtoa.o)
 .text          0x0000000000000360        0x0 /home/tech/ti/ccsv7/tools/compiler/gcc-arm-none-eabi-6-2017-q1-update/bin/../lib/gcc/arm-none-eabi/6.3.1/../../../../arm-none-eabi/lib/thumb/v7e-m/fpv4-sp/hard/libc.a(lib_a-fflush.o)
 .text          0x0000000000000360        0x0 /home/tech/ti/ccsv7/tools/compiler/gcc-arm-none-eabi-6-2017-q1-update/bin/../lib/gcc/arm-none-eabi/6.3.1/../../../../arm-none-eabi/lib/thumb/v7e-m/fpv4-sp/hard/libc.a(lib_a-findfp.o)
 .text          0x0000000000000360        0x0 /home/tech/ti/ccsv7/tools/compiler/gcc-arm-none-eabi-6-2017-q1-update/bin/../lib/gcc/arm-none-eabi/6.3.1/../../../../arm-none-eabi/lib/thumb/v7e-m/fpv4-sp/hard/libc.a(lib_a-fini.o)
 .text          0x0000000000000360        0x0 /home/tech/ti/ccsv7/tools/compiler/gcc-arm-none-eabi-6-2017-q1-update/bin/../lib/gcc/arm-none-eabi/6.3.1/../../../../arm-none-eabi/lib/thumb/v7e-m/fpv4-sp/hard/libc.a(lib_a-freer.o)
 .text          0x0000000000000360        0x0 /home/tech/ti/ccsv7/tools/compiler/gcc-arm-none-eabi-6-2017-q1-update/bin/../lib/gcc/arm-none-eabi/6.3.1/../../../../arm-none-eabi/lib/thumb/v7e-m/fpv4-sp/hard/libc.a(lib_a-fwalk.o)
 .text          0x0000000000000360        0x0 /home/tech/ti/ccsv7/tools/compiler/gcc-arm-none-eabi-6-2017-q1-update/bin/../lib/gcc/arm-none-eabi/6.3.1/../../../../arm-none-eabi/lib/thumb/v7e-m/fpv4-sp/hard/libc.a(lib_a-gdtoa-gethex.o)
 .text          0x0000000000000360        0x0 /home/tech/ti/ccsv7/tools/compiler/gcc-arm-none-eabi-6-2017-q1-update/bin/../lib/gcc/arm-none-eabi/6.3.1/../../../../arm-none-eabi/lib/thumb/v7e-m/fpv4-sp/hard/libc.a(lib_a-gdtoa-hexnan.o)
 .text          0x0000000000000360        0x0 /home/tech/ti/ccsv7/tools/compiler/gcc-arm-none-eabi-6-2017-q1-update/bin/../lib/gcc/arm-none-eabi/6.3.1/../../../../arm-none-eabi/lib/thumb/v7e-m/fpv4-sp/hard/libc.a(lib_a-locale.o)
 .text          0x0000000000000360        0x0 /home/tech/ti/ccsv7/tools/compiler/gcc-arm-none-eabi-6-2017-q1-update/bin/../lib/gcc/arm-none-eabi/6.3.1/../../../../arm-none-eabi/lib/thumb/v7e-m/fpv4-sp/hard/libc.a(lib_a-localeconv.o)
 .text          0x0000000000000360        0x0 /home/tech/ti/ccsv7/tools/compiler/gcc-arm-none-eabi-6-2017-q1-update/bin/../lib/gcc/arm-none-eabi/6.3.1/../../../../arm-none-eabi/lib/thumb/v7e-m/fpv4-sp/hard/libc.a(lib_a-lock.o)
 .text          0x0000000000000360        0x0 /home/tech/ti/ccsv7/tools/compiler/gcc-arm-none-eabi-6-2017-q1-update/bin/../lib/gcc/arm-none-eabi/6.3.1/../../../../arm-none-eabi/lib/thumb/v7e-m/fpv4-sp/hard/libc.a(lib_a-makebuf.o)
 .text          0x0000000000000360        0x0 /home/tech/ti/ccsv7/tools/compiler/gcc-arm-none-eabi-6-2017-q1-update/bin/../lib/gcc/arm-none-eabi/6.3.1/../../../../arm-none-eabi/lib/thumb/v7e-m/fpv4-sp/hard/libc.a(lib_a-mallocr.o)
 .text          0x0000000000000360        0x0 /home/tech/ti/ccsv7/tools/compiler/gcc-arm-none-eabi-6-2017-q1-update/bin/../lib/gcc/arm-none-eabi/6.3.1/../../../../arm-none-eabi/lib/thumb/v7e-m/fpv4-sp/hard/libc.a(lib_a-mbtowc_r.o)
 .text          0x0000000000000360       0xa0 /home/tech/ti/ccsv7/tools/compiler/gcc-arm-none-eabi-6-2017-q1-update/bin/../lib/gcc/arm-none-eabi/6.3.1/../../../../arm-none-eabi/lib/thumb/v7e-m/fpv4-sp/hard/libc.a(lib_a-memchr.o)
                0x0000000000000360                memchr
 .text          0x0000000000000400      0x134 /home/tech/ti/ccsv7/tools/compiler/gcc-arm-none-eabi-6-2017-q1-update/bin/../lib/gcc/arm-none-eabi/6.3.1/../../../../arm-none-eabi/lib/thumb/v7e-m/fpv4-sp/hard/libc.a(lib_a-memcpy.o)
                0x0000000000000400                memcpy
 .text          0x0000000000000534        0x0 /home/tech/ti/ccsv7/tools/compiler/gcc-arm-none-eabi-6-2017-q1-update/bin/../lib/gcc/arm-none-eabi/6.3.1/../../../../arm-none-eabi/lib/thumb/v7e-m/fpv4-sp/hard/libc.a(lib_a-mlock.o)
 .text          0x0000000000000534        0x0 /home/tech/ti/ccsv7/tools/compiler/gcc-arm-none-eabi-6-2017-q1-update/bin/../lib/gcc/arm-none-eabi/6.3.1/../../../../arm-none-eabi/lib/thumb/v7e-m/fpv4-sp/hard/libc.a(lib_a-mprec.o)
 .text          0x0000000000000534        0x0 /home/tech/ti/ccsv7/tools/compiler/gcc-arm-none-eabi-6-2017-q1-update/bin/../lib/gcc/arm-none-eabi/6.3.1/../../../../arm-none-eabi/lib/thumb/v7e-m/fpv4-sp/hard/libc.a(lib_a-putc.o)
 .text          0x0000000000000534        0x0 /home/tech/ti/ccsv7/tools/compiler/gcc-arm-none-eabi-6-2017-q1-update/bin/../lib/gcc/arm-none-eabi/6.3.1/../../../../arm-none-eabi/lib/thumb/v7e-m/fpv4-sp/hard/libc.a(lib_a-sbrkr.o)
 .text          0x0000000000000534        0x0 /home/tech/ti/ccsv7/tools/compiler/gcc-arm-none-eabi-6-2017-q1-update/bin/../lib/gcc/arm-none-eabi/6.3.1/../../../../arm-none-eabi/lib/thumb/v7e-m/fpv4-sp/hard/libc.a(lib_a-sf_nan.o)
 .text          0x0000000000000534        0x0 /home/tech/ti/ccsv7/tools/compiler/gcc-arm-none-eabi-6-2017-q1-update/bin/../lib/gcc/arm-none-eabi/6.3.1/../../../../arm-none-eabi/lib/thumb/v7e-m/fpv4-sp/hard/libc.a(lib_a-stdio.o)
 *fill*         0x0000000000000534        0xc 
 .text          0x0000000000000540      0x2dc /home/tech/ti/ccsv7/tools/compiler/gcc-arm-none-eabi-6-2017-q1-update/bin/../lib/gcc/arm-none-eabi/6.3.1/../../../../arm-none-eabi/lib/thumb/v7e-m/fpv4-sp/hard/libc.a(lib_a-strcmp.o)
                0x0000000000000548                strcmp
 *fill*         0x000000000000081c       0x24 
 .text          0x0000000000000840       0xdc /home/tech/ti/ccsv7/tools/compiler/gcc-arm-none-eabi-6-2017-q1-update/bin/../lib/gcc/arm-none-eabi/6.3.1/../../../../arm-none-eabi/lib/thumb/v7e-m/fpv4-sp/hard/libc.a(lib_a-strlen.o)
                0x0000000000000840                strlen
 .text          0x000000000000091c        0x0 /home/tech/ti/ccsv7/tools/compiler/gcc-arm-none-eabi-6-2017-q1-update/bin/../lib/gcc/arm-none-eabi/6.3.1/../../../../arm-none-eabi/lib/thumb/v7e-m/fpv4-sp/hard/libc.a(lib_a-strncmp.o)
 .text          0x000000000000091c        0x0 /home/tech/ti/ccsv7/tools/compiler/gcc-arm-none-eabi-6-2017-q1-update/bin/../lib/gcc/arm-none-eabi/6.3.1/../../../../arm-none-eabi/lib/thumb/v7e-m/fpv4-sp/hard/libc.a(lib_a-svfiprintf.o)
 .text          0x000000000000091c        0x0 /home/tech/ti/ccsv7/tools/compiler/gcc-arm-none-eabi-6-2017-q1-update/bin/../lib/gcc/arm-none-eabi/6.3.1/../../../../arm-none-eabi/lib/thumb/v7e-m/fpv4-sp/hard/libc.a(lib_a-vfiprintf.o)
 .text          0x000000000000091c        0x0 /home/tech/ti/ccsv7/tools/compiler/gcc-arm-none-eabi-6-2017-q1-update/bin/../lib/gcc/arm-none-eabi/6.3.1/../../../../arm-none-eabi/lib/thumb/v7e-m/fpv4-sp/hard/libc.a(lib_a-wbuf.o)
 .text          0x000000000000091c        0x0 /home/tech/ti/ccsv7/tools/compiler/gcc-arm-none-eabi-6-2017-q1-update/bin/../lib/gcc/arm-none-eabi/6.3.1/../../../../arm-none-eabi/lib/thumb/v7e-m/fpv4-sp/hard/libc.a(lib_a-wctomb_r.o)
 .text          0x000000000000091c        0x0 /home/tech/ti/ccsv7/tools/compiler/gcc-arm-none-eabi-6-2017-q1-update/bin/../lib/gcc/arm-none-eabi/6.3.1/../../../../arm-none-eabi/lib/thumb/v7e-m/fpv4-sp/hard/libc.a(lib_a-writer.o)
 .text          0x000000000000091c        0x0 /home/tech/ti/ccsv7/tools/compiler/gcc-arm-none-eabi-6-2017-q1-update/bin/../lib/gcc/arm-none-eabi/6.3.1/../../../../arm-none-eabi/lib/thumb/v7e-m/fpv4-sp/hard/libc.a(lib_a-__atexit.o)
 .text          0x000000000000091c        0x0 /home/tech/ti/ccsv7/tools/compiler/gcc-arm-none-eabi-6-2017-q1-update/bin/../lib/gcc/arm-none-eabi/6.3.1/../../../../arm-none-eabi/lib/thumb/v7e-m/fpv4-sp/hard/libc.a(lib_a-callocr.o)
 .text          0x000000000000091c        0x0 /home/tech/ti/ccsv7/tools/compiler/gcc-arm-none-eabi-6-2017-q1-update/bin/../lib/gcc/arm-none-eabi/6.3.1/../../../../arm-none-eabi/lib/thumb/v7e-m/fpv4-sp/hard/libc.a(lib_a-closer.o)
 .text          0x000000000000091c        0x0 /home/tech/ti/ccsv7/tools/compiler/gcc-arm-none-eabi-6-2017-q1-update/bin/../lib/gcc/arm-none-eabi/6.3.1/../../../../arm-none-eabi/lib/thumb/v7e-m/fpv4-sp/hard/libc.a(lib_a-ctype_.o)
 .text          0x000000000000091c        0x0 /home/tech/ti/ccsv7/tools/compiler/gcc-arm-none-eabi-6-2017-q1-update/bin/../lib/gcc/arm-none-eabi/6.3.1/../../../../arm-none-eabi/lib/thumb/v7e-m/fpv4-sp/hard/libc.a(lib_a-fclose.o)
 .text          0x000000000000091c        0x0 /home/tech/ti/ccsv7/tools/compiler/gcc-arm-none-eabi-6-2017-q1-update/bin/../lib/gcc/arm-none-eabi/6.3.1/../../../../arm-none-eabi/lib/thumb/v7e-m/fpv4-sp/hard/libc.a(lib_a-fputwc.o)
 .text          0x000000000000091c        0x0 /home/tech/ti/ccsv7/tools/compiler/gcc-arm-none-eabi-6-2017-q1-update/bin/../lib/gcc/arm-none-eabi/6.3.1/../../../../arm-none-eabi/lib/thumb/v7e-m/fpv4-sp/hard/libc.a(lib_a-fstatr.o)
 .text          0x000000000000091c        0x0 /home/tech/ti/ccsv7/tools/compiler/gcc-arm-none-eabi-6-2017-q1-update/bin/../lib/gcc/arm-none-eabi/6.3.1/../../../../arm-none-eabi/lib/thumb/v7e-m/fpv4-sp/hard/libc.a(lib_a-fvwrite.o)
 .text          0x000000000000091c        0x0 /home/tech/ti/ccsv7/tools/compiler/gcc-arm-none-eabi-6-2017-q1-update/bin/../lib/gcc/arm-none-eabi/6.3.1/../../../../arm-none-eabi/lib/thumb/v7e-m/fpv4-sp/hard/libc.a(lib_a-isattyr.o)
 .text          0x000000000000091c        0x0 /home/tech/ti/ccsv7/tools/compiler/gcc-arm-none-eabi-6-2017-q1-update/bin/../lib/gcc/arm-none-eabi/6.3.1/../../../../arm-none-eabi/lib/thumb/v7e-m/fpv4-sp/hard/libc.a(lib_a-lseekr.o)
 .text          0x000000000000091c        0x0 /home/tech/ti/ccsv7/tools/compiler/gcc-arm-none-eabi-6-2017-q1-update/bin/../lib/gcc/arm-none-eabi/6.3.1/../../../../arm-none-eabi/lib/thumb/v7e-m/fpv4-sp/hard/libc.a(lib_a-memmove.o)
 .text          0x000000000000091c        0x0 /home/tech/ti/ccsv7/tools/compiler/gcc-arm-none-eabi-6-2017-q1-update/bin/../lib/gcc/arm-none-eabi/6.3.1/../../../../arm-none-eabi/lib/thumb/v7e-m/fpv4-sp/hard/libc.a(lib_a-readr.o)
 .text          0x000000000000091c        0x0 /home/tech/ti/ccsv7/tools/compiler/gcc-arm-none-eabi-6-2017-q1-update/bin/../lib/gcc/arm-none-eabi/6.3.1/../../../../arm-none-eabi/lib/thumb/v7e-m/fpv4-sp/hard/libc.a(lib_a-reallocr.o)
 .text          0x000000000000091c        0x0 /home/tech/ti/ccsv7/tools/compiler/gcc-arm-none-eabi-6-2017-q1-update/bin/../lib/gcc/arm-none-eabi/6.3.1/../../../../arm-none-eabi/lib/thumb/v7e-m/fpv4-sp/hard/libc.a(lib_a-reent.o)
 .text          0x000000000000091c        0x0 /home/tech/ti/ccsv7/tools/compiler/gcc-arm-none-eabi-6-2017-q1-update/bin/../lib/gcc/arm-none-eabi/6.3.1/../../../../arm-none-eabi/lib/thumb/v7e-m/fpv4-sp/hard/libc.a(lib_a-wcrtomb.o)
 .text          0x000000000000091c        0x0 /home/tech/ti/ccsv7/tools/compiler/gcc-arm-none-eabi-6-2017-q1-update/bin/../lib/gcc/arm-none-eabi/6.3.1/../../../../arm-none-eabi/lib/thumb/v7e-m/fpv4-sp/hard/librdimon.a(rdimon-syscalls.o)
 .text          0x000000000000091c        0x0 /home/tech/ti/ccsv7/tools/compiler/gcc-arm-none-eabi-6-2017-q1-update/bin/../lib/gcc/arm-none-eabi/6.3.1/../../../../arm-none-eabi/lib/thumb/v7e-m/fpv4-sp/hard/librdimon.a(rdimon-_exit.o)
 .text          0x000000000000091c        0x0 /home/tech/ti/ccsv7/tools/compiler/gcc-arm-none-eabi-6-2017-q1-update/bin/../lib/gcc/arm-none-eabi/6.3.1/../../../../arm-none-eabi/lib/thumb/v7e-m/fpv4-sp/hard/librdimon.a(rdimon-_kill.o)
 .text          0x000000000000091c        0x0 /home/tech/ti/ccsv7/tools/compiler/gcc-arm-none-eabi-6-2017-q1-update/bin/../lib/gcc/arm-none-eabi/6.3.1/../../../../arm-none-eabi/lib/thumb/v7e-m/fpv4-sp/hard/libc.a(lib_a-errno.o)
 .text          0x000000000000091c      0x370 /home/tech/ti/ccsv7/tools/compiler/gcc-arm-none-eabi-6-2017-q1-update/bin/../lib/gcc/arm-none-eabi/6.3.1/thumb/v7e-m/fpv4-sp/hard/libgcc.a(_arm_addsubdf3.o)
                0x000000000000091c                __aeabi_drsub
                0x0000000000000924                __aeabi_dsub
                0x0000000000000924                __subdf3
                0x0000000000000928                __adddf3
                0x0000000000000928                __aeabi_dadd
                0x0000000000000ba0                __aeabi_ui2d
                0x0000000000000ba0                __floatunsidf
                0x0000000000000bc0                __floatsidf
                0x0000000000000bc0                __aeabi_i2d
                0x0000000000000be4                __extendsfdf2
                0x0000000000000be4                __aeabi_f2d
                0x0000000000000c20                __aeabi_ul2d
                0x0000000000000c20                __floatundidf
                0x0000000000000c30                __floatdidf
                0x0000000000000c30                __aeabi_l2d
 .text          0x0000000000000c8c      0x424 /home/tech/ti/ccsv7/tools/compiler/gcc-arm-none-eabi-6-2017-q1-update/bin/../lib/gcc/arm-none-eabi/6.3.1/thumb/v7e-m/fpv4-sp/hard/libgcc.a(_arm_muldivdf3.o)
                0x0000000000000c8c                __aeabi_dmul
                0x0000000000000c8c                __muldf3
                0x0000000000000ee0                __aeabi_ddiv
                0x0000000000000ee0                __divdf3
 .text          0x00000000000010b0      0x110 /home/tech/ti/ccsv7/tools/compiler/gcc-arm-none-eabi-6-2017-q1-update/bin/../lib/gcc/arm-none-eabi/6.3.1/thumb/v7e-m/fpv4-sp/hard/libgcc.a(_arm_cmpdf2.o)
                0x00000000000010b0                __gtdf2
                0x00000000000010b0                __gedf2
                0x00000000000010b8                __ltdf2
                0x00000000000010b8                __ledf2
                0x00000000000010c0                __cmpdf2
                0x00000000000010c0                __eqdf2
                0x00000000000010c0                __nedf2
                0x000000000000113c                __aeabi_cdrcmple
                0x000000000000114c                __aeabi_cdcmple
                0x000000000000114c                __aeabi_cdcmpeq
                0x000000000000115c                __aeabi_dcmpeq
                0x0000000000001170                __aeabi_dcmplt
                0x0000000000001184                __aeabi_dcmple
                0x0000000000001198                __aeabi_dcmpge
                0x00000000000011ac                __aeabi_dcmpgt
 .text          0x00000000000011c0       0x2c /home/tech/ti/ccsv7/tools/compiler/gcc-arm-none-eabi-6-2017-q1-update/bin/../lib/gcc/arm-none-eabi/6.3.1/thumb/v7e-m/fpv4-sp/hard/libgcc.a(_arm_unorddf2.o)
                0x00000000000011c0                __aeabi_dcmpun
                0x00000000000011c0                __unorddf2
 .text          0x00000000000011ec       0x50 /home/tech/ti/ccsv7/tools/compiler/gcc-arm-none-eabi-6-2017-q1-update/bin/../lib/gcc/arm-none-eabi/6.3.1/thumb/v7e-m/fpv4-sp/hard/libgcc.a(_arm_fixdfsi.o)
                0x00000000000011ec                __fixdfsi
                0x00000000000011ec                __aeabi_d2iz
 .text          0x000000000000123c       0x40 /home/tech/ti/ccsv7/tools/compiler/gcc-arm-none-eabi-6-2017-q1-update/bin/../lib/gcc/arm-none-eabi/6.3.1/thumb/v7e-m/fpv4-sp/hard/libgcc.a(_arm_fixunsdfsi.o)
                0x000000000000123c                __fixunsdfsi
                0x000000000000123c                __aeabi_d2uiz
 .text          0x000000000000127c       0xa0 /home/tech/ti/ccsv7/tools/compiler/gcc-arm-none-eabi-6-2017-q1-update/bin/../lib/gcc/arm-none-eabi/6.3.1/thumb/v7e-m/fpv4-sp/hard/libgcc.a(_arm_truncdfsf2.o)
                0x000000000000127c                __aeabi_d2f
                0x000000000000127c                __truncdfsf2
 .text          0x000000000000131c       0x30 /home/tech/ti/ccsv7/tools/compiler/gcc-arm-none-eabi-6-2017-q1-update/bin/../lib/gcc/arm-none-eabi/6.3.1/thumb/v7e-m/fpv4-sp/hard/libgcc.a(_aeabi_uldivmod.o)
                0x000000000000131c                __aeabi_uldivmod
 .text          0x000000000000134c      0x2dc /home/tech/ti/ccsv7/tools/compiler/gcc-arm-none-eabi-6-2017-q1-update/bin/../lib/gcc/arm-none-eabi/6.3.1/thumb/v7e-m/fpv4-sp/hard/libgcc.a(_udivmoddi4.o)
                0x000000000000134c                __udivmoddi4
 .text          0x0000000000001628        0x4 /home/tech/ti/ccsv7/tools/compiler/gcc-arm-none-eabi-6-2017-q1-update/bin/../lib/gcc/arm-none-eabi/6.3.1/thumb/v7e-m/fpv4-sp/hard/libgcc.a(_dvmd_tls.o)
                0x0000000000001628                __aeabi_ldiv0
                0x0000000000001628                __aeabi_idiv0
 .text          0x000000000000162c        0x0 /home/tech/ti/ccsv7/tools/compiler/gcc-arm-none-eabi-6-2017-q1-update/bin/../lib/gcc/arm-none-eabi/6.3.1/thumb/v7e-m/fpv4-sp/hard/crtend.o
 .text          0x000000000000162c        0x0 /home/tech/ti/ccsv7/tools/compiler/gcc-arm-none-eabi-6-2017-q1-update/bin/../lib/gcc/arm-none-eabi/6.3.1/thumb/v7e-m/fpv4-sp/hard/crtn.o
 *(.text.*)
 .text.LCD_String_xy
                0x000000000000162c       0x40 ./main.o
                0x000000000000162c                LCD_String_xy
 .text.LCD_String
                0x000000000000166c       0x3c ./main.o
                0x000000000000166c                LCD_String
 .text.DisableInterrupts
                0x00000000000016a8       0x10 ./main.o
                0x00000000000016a8                DisableInterrupts
 .text.EnableInterrupts
                0x00000000000016b8       0x10 ./main.o
                0x00000000000016b8                EnableInterrupts
 .text.WaitForInterrupt
                0x00000000000016c8       0x10 ./main.o
                0x00000000000016c8                WaitForInterrupt
 .text.UART_InChar
                0x00000000000016d8       0x2c ./main.o
                0x00000000000016d8                UART_InChar
 .text.UART_Init
                0x0000000000001704       0xbc ./main.o
                0x0000000000001704                UART_Init
 .text.UART_HANDLER
                0x00000000000017c0       0xe0 ./main.o
                0x00000000000017c0                UART_HANDLER
 .text.get_gpstime
                0x00000000000018a0       0x54 ./main.o
                0x00000000000018a0                get_gpstime
 .text.get_latitude
                0x00000000000018f4       0x90 ./main.o
                0x00000000000018f4                get_latitude
 .text.get_longitude
                0x0000000000001984       0x90 ./main.o
                0x0000000000001984                get_longitude
 .text.get_altitude
                0x0000000000001a14       0x7c ./main.o
                0x0000000000001a14                get_altitude
 .text.convert_time_to_UTC
                0x0000000000001a90       0x80 ./main.o
                0x0000000000001a90                convert_time_to_UTC
 .text.convert_to_degrees
                0x0000000000001b10       0xc4 ./main.o
                0x0000000000001b10                convert_to_degrees
 *fill*         0x0000000000001bd4        0x4 
 .text.sqroot   0x0000000000001bd8       0xf8 ./main.o
                0x0000000000001bd8                sqroot
 .text.compute_position
                0x0000000000001cd0      0x254 ./main.o
                0x0000000000001cd0                compute_position
 *fill*         0x0000000000001f24        0x4 
 .text.sin      0x0000000000001f28      0x19c ./main.o
                0x0000000000001f28                sin
 *fill*         0x00000000000020c4        0x4 
 .text.cos      0x00000000000020c8      0x178 ./main.o
                0x00000000000020c8                cos
 .text.conv_gps_lat_long
                0x0000000000002240      0x148 ./main.o
                0x0000000000002240                conv_gps_lat_long
 .text.main     0x0000000000002388      0x320 ./main.o
                0x0000000000002388                main
 .text.InitI2C  0x00000000000026a8      0x174 ./main.o
                0x00000000000026a8                InitI2C
 .text.IsMPUAvailable
                0x000000000000281c       0x80 ./main.o
                0x000000000000281c                IsMPUAvailable
 .text.delayMs  0x000000000000289c       0x3e ./main.o
                0x000000000000289c                delayMs
 *fill*         0x00000000000028da        0x2 
 .text.MPU_init
                0x00000000000028dc      0x144 ./main.o
                0x00000000000028dc                MPU_init
 .text.MPU_Start_Loc
                0x0000000000002a20       0x34 ./main.o
                0x0000000000002a20                MPU_Start_Loc
 *fill*         0x0000000000002a54        0x4 
 .text.MPU_Receive
                0x0000000000002a58      0x6a8 ./main.o
                0x0000000000002a58                MPU_Receive
 .text.ResetISR
                0x0000000000003100       0x6c ./tm4c123gh6pm_startup_ccs_gcc.o
                0x0000000000003100                ResetISR
 .text.NmiSR    0x000000000000316c        0x6 ./tm4c123gh6pm_startup_ccs_gcc.o
 .text.FaultISR
                0x0000000000003172        0x6 ./tm4c123gh6pm_startup_ccs_gcc.o
 .text.IntDefaultHandler
                0x0000000000003178        0x6 ./tm4c123gh6pm_startup_ccs_gcc.o
 *fill*         0x000000000000317e        0x2 
 .text.atof     0x0000000000003180        0x8 /home/tech/ti/ccsv7/tools/compiler/gcc-arm-none-eabi-6-2017-q1-update/bin/../lib/gcc/arm-none-eabi/6.3.1/../../../../arm-none-eabi/lib/thumb/v7e-m/fpv4-sp/hard/libc.a(lib_a-atof.o)
                0x0000000000003180                atof
 .text.atol     0x0000000000003188        0x8 /home/tech/ti/ccsv7/tools/compiler/gcc-arm-none-eabi-6-2017-q1-update/bin/../lib/gcc/arm-none-eabi/6.3.1/../../../../arm-none-eabi/lib/thumb/v7e-m/fpv4-sp/hard/libc.a(lib_a-atol.o)
                0x0000000000003188                atol
 .text._atol_r  0x0000000000003190        0x8 /home/tech/ti/ccsv7/tools/compiler/gcc-arm-none-eabi-6-2017-q1-update/bin/../lib/gcc/arm-none-eabi/6.3.1/../../../../arm-none-eabi/lib/thumb/v7e-m/fpv4-sp/hard/libc.a(lib_a-atol.o)
                0x0000000000003190                _atol_r
 .text.exit     0x0000000000003198       0x20 /home/tech/ti/ccsv7/tools/compiler/gcc-arm-none-eabi-6-2017-q1-update/bin/../lib/gcc/arm-none-eabi/6.3.1/../../../../arm-none-eabi/lib/thumb/v7e-m/fpv4-sp/hard/libc.a(lib_a-exit.o)
                0x0000000000003198                exit
 .text.__libc_init_array
                0x00000000000031b8       0x50 /home/tech/ti/ccsv7/tools/compiler/gcc-arm-none-eabi-6-2017-q1-update/bin/../lib/gcc/arm-none-eabi/6.3.1/../../../../arm-none-eabi/lib/thumb/v7e-m/fpv4-sp/hard/libc.a(lib_a-init.o)
                0x00000000000031b8                __libc_init_array
 .text.memset   0x0000000000003208       0x9c /home/tech/ti/ccsv7/tools/compiler/gcc-arm-none-eabi-6-2017-q1-update/bin/../lib/gcc/arm-none-eabi/6.3.1/../../../../arm-none-eabi/lib/thumb/v7e-m/fpv4-sp/hard/libc.a(lib_a-memset.o)
                0x0000000000003208                memset
 .text._printf_r
                0x00000000000032a4       0x20 /home/tech/ti/ccsv7/tools/compiler/gcc-arm-none-eabi-6-2017-q1-update/bin/../lib/gcc/arm-none-eabi/6.3.1/../../../../arm-none-eabi/lib/thumb/v7e-m/fpv4-sp/hard/libc.a(lib_a-printf.o)
                0x00000000000032a4                _printf_r
 .text.printf   0x00000000000032c4       0x28 /home/tech/ti/ccsv7/tools/compiler/gcc-arm-none-eabi-6-2017-q1-update/bin/../lib/gcc/arm-none-eabi/6.3.1/../../../../arm-none-eabi/lib/thumb/v7e-m/fpv4-sp/hard/libc.a(lib_a-printf.o)
                0x00000000000032c4                printf
 .text._putchar_r
                0x00000000000032ec        0x8 /home/tech/ti/ccsv7/tools/compiler/gcc-arm-none-eabi-6-2017-q1-update/bin/../lib/gcc/arm-none-eabi/6.3.1/../../../../arm-none-eabi/lib/thumb/v7e-m/fpv4-sp/hard/libc.a(lib_a-putchar.o)
                0x00000000000032ec                _putchar_r
 .text.putchar  0x00000000000032f4       0x14 /home/tech/ti/ccsv7/tools/compiler/gcc-arm-none-eabi-6-2017-q1-update/bin/../lib/gcc/arm-none-eabi/6.3.1/../../../../arm-none-eabi/lib/thumb/v7e-m/fpv4-sp/hard/libc.a(lib_a-putchar.o)
                0x00000000000032f4                putchar
 .text._sprintf_r
                0x0000000000003308       0x44 /home/tech/ti/ccsv7/tools/compiler/gcc-arm-none-eabi-6-2017-q1-update/bin/../lib/gcc/arm-none-eabi/6.3.1/../../../../arm-none-eabi/lib/thumb/v7e-m/fpv4-sp/hard/libc.a(lib_a-sprintf.o)
                0x0000000000003308                _sprintf_r
 .text.sprintf  0x000000000000334c       0x4c /home/tech/ti/ccsv7/tools/compiler/gcc-arm-none-eabi-6-2017-q1-update/bin/../lib/gcc/arm-none-eabi/6.3.1/../../../../arm-none-eabi/lib/thumb/v7e-m/fpv4-sp/hard/libc.a(lib_a-sprintf.o)
                0x000000000000334c                sprintf
 .text.unlikely.sulp
                0x0000000000003398       0x38 /home/tech/ti/ccsv7/tools/compiler/gcc-arm-none-eabi-6-2017-q1-update/bin/../lib/gcc/arm-none-eabi/6.3.1/../../../../arm-none-eabi/lib/thumb/v7e-m/fpv4-sp/hard/libc.a(lib_a-strtod.o)
 .text._strtod_l
                0x00000000000033d0      0xf28 /home/tech/ti/ccsv7/tools/compiler/gcc-arm-none-eabi-6-2017-q1-update/bin/../lib/gcc/arm-none-eabi/6.3.1/../../../../arm-none-eabi/lib/thumb/v7e-m/fpv4-sp/hard/libc.a(lib_a-strtod.o)
                0x00000000000033d0                _strtod_l
 .text._strtod_r
                0x00000000000042f8       0x20 /home/tech/ti/ccsv7/tools/compiler/gcc-arm-none-eabi-6-2017-q1-update/bin/../lib/gcc/arm-none-eabi/6.3.1/../../../../arm-none-eabi/lib/thumb/v7e-m/fpv4-sp/hard/libc.a(lib_a-strtod.o)
                0x00000000000042f8                _strtod_r
 .text.strtod_l
                0x0000000000004318       0x18 /home/tech/ti/ccsv7/tools/compiler/gcc-arm-none-eabi-6-2017-q1-update/bin/../lib/gcc/arm-none-eabi/6.3.1/../../../../arm-none-eabi/lib/thumb/v7e-m/fpv4-sp/hard/libc.a(lib_a-strtod.o)
                0x0000000000004318                strtod_l
 .text.strtod   0x0000000000004330       0x24 /home/tech/ti/ccsv7/tools/compiler/gcc-arm-none-eabi-6-2017-q1-update/bin/../lib/gcc/arm-none-eabi/6.3.1/../../../../arm-none-eabi/lib/thumb/v7e-m/fpv4-sp/hard/libc.a(lib_a-strtod.o)
                0x0000000000004330                strtod
 .text.strtof_l
                0x0000000000004354       0xa0 /home/tech/ti/ccsv7/tools/compiler/gcc-arm-none-eabi-6-2017-q1-update/bin/../lib/gcc/arm-none-eabi/6.3.1/../../../../arm-none-eabi/lib/thumb/v7e-m/fpv4-sp/hard/libc.a(lib_a-strtod.o)
                0x0000000000004354                strtof_l
 .text.strtof   0x00000000000043f4       0xb0 /home/tech/ti/ccsv7/tools/compiler/gcc-arm-none-eabi-6-2017-q1-update/bin/../lib/gcc/arm-none-eabi/6.3.1/../../../../arm-none-eabi/lib/thumb/v7e-m/fpv4-sp/hard/libc.a(lib_a-strtod.o)
                0x00000000000043f4                strtof
 .text._strtol_l.isra.0
                0x00000000000044a4      0x128 /home/tech/ti/ccsv7/tools/compiler/gcc-arm-none-eabi-6-2017-q1-update/bin/../lib/gcc/arm-none-eabi/6.3.1/../../../../arm-none-eabi/lib/thumb/v7e-m/fpv4-sp/hard/libc.a(lib_a-strtol.o)
 .text._strtol_r
                0x00000000000045cc       0x24 /home/tech/ti/ccsv7/tools/compiler/gcc-arm-none-eabi-6-2017-q1-update/bin/../lib/gcc/arm-none-eabi/6.3.1/../../../../arm-none-eabi/lib/thumb/v7e-m/fpv4-sp/hard/libc.a(lib_a-strtol.o)
                0x00000000000045cc                _strtol_r
 .text.strtol_l
                0x00000000000045f0       0x20 /home/tech/ti/ccsv7/tools/compiler/gcc-arm-none-eabi-6-2017-q1-update/bin/../lib/gcc/arm-none-eabi/6.3.1/../../../../arm-none-eabi/lib/thumb/v7e-m/fpv4-sp/hard/libc.a(lib_a-strtol.o)
                0x00000000000045f0                strtol_l
 .text.strtol   0x0000000000004610       0x2c /home/tech/ti/ccsv7/tools/compiler/gcc-arm-none-eabi-6-2017-q1-update/bin/../lib/gcc/arm-none-eabi/6.3.1/../../../../arm-none-eabi/lib/thumb/v7e-m/fpv4-sp/hard/libc.a(lib_a-strtol.o)
                0x0000000000004610                strtol
 *fill*         0x000000000000463c        0x4 
 .text._svfprintf_r
                0x0000000000004640     0x1488 /home/tech/ti/ccsv7/tools/compiler/gcc-arm-none-eabi-6-2017-q1-update/bin/../lib/gcc/arm-none-eabi/6.3.1/../../../../arm-none-eabi/lib/thumb/v7e-m/fpv4-sp/hard/libc.a(lib_a-svfprintf.o)
                0x0000000000004640                _svfprintf_r
 .text._vfprintf_r
                0x0000000000005ac8     0x157c /home/tech/ti/ccsv7/tools/compiler/gcc-arm-none-eabi-6-2017-q1-update/bin/../lib/gcc/arm-none-eabi/6.3.1/../../../../arm-none-eabi/lib/thumb/v7e-m/fpv4-sp/hard/libc.a(lib_a-vfprintf.o)
                0x0000000000005ac8                _vfprintf_r
 .text.vfprintf
                0x0000000000007044       0x18 /home/tech/ti/ccsv7/tools/compiler/gcc-arm-none-eabi-6-2017-q1-update/bin/../lib/gcc/arm-none-eabi/6.3.1/../../../../arm-none-eabi/lib/thumb/v7e-m/fpv4-sp/hard/libc.a(lib_a-vfprintf.o)
                0x0000000000007044                vfprintf
 .text.__sbprintf
                0x000000000000705c       0x84 /home/tech/ti/ccsv7/tools/compiler/gcc-arm-none-eabi-6-2017-q1-update/bin/../lib/gcc/arm-none-eabi/6.3.1/../../../../arm-none-eabi/lib/thumb/v7e-m/fpv4-sp/hard/libc.a(lib_a-vfprintf.o)
 .text.__swsetup_r
                0x00000000000070e0       0xc8 /home/tech/ti/ccsv7/tools/compiler/gcc-arm-none-eabi-6-2017-q1-update/bin/../lib/gcc/arm-none-eabi/6.3.1/../../../../arm-none-eabi/lib/thumb/v7e-m/fpv4-sp/hard/libc.a(lib_a-wsetup.o)
                0x00000000000070e0                __swsetup_r
 .text.startup.register_fini
                0x00000000000071a8       0x14 /home/tech/ti/ccsv7/tools/compiler/gcc-arm-none-eabi-6-2017-q1-update/bin/../lib/gcc/arm-none-eabi/6.3.1/../../../../arm-none-eabi/lib/thumb/v7e-m/fpv4-sp/hard/libc.a(lib_a-__call_atexit.o)
 .text.__call_exitprocs
                0x00000000000071bc       0xe8 /home/tech/ti/ccsv7/tools/compiler/gcc-arm-none-eabi-6-2017-q1-update/bin/../lib/gcc/arm-none-eabi/6.3.1/../../../../arm-none-eabi/lib/thumb/v7e-m/fpv4-sp/hard/libc.a(lib_a-__call_atexit.o)
                0x00000000000071bc                __call_exitprocs
 .text.atexit   0x00000000000072a4        0xc /home/tech/ti/ccsv7/tools/compiler/gcc-arm-none-eabi-6-2017-q1-update/bin/../lib/gcc/arm-none-eabi/6.3.1/../../../../arm-none-eabi/lib/thumb/v7e-m/fpv4-sp/hard/libc.a(lib_a-atexit.o)
                0x00000000000072a4                atexit
 .text.quorem   0x00000000000072b0      0x128 /home/tech/ti/ccsv7/tools/compiler/gcc-arm-none-eabi-6-2017-q1-update/bin/../lib/gcc/arm-none-eabi/6.3.1/../../../../arm-none-eabi/lib/thumb/v7e-m/fpv4-sp/hard/libc.a(lib_a-dtoa.o)
 .text._dtoa_r  0x00000000000073d8      0xe4c /home/tech/ti/ccsv7/tools/compiler/gcc-arm-none-eabi-6-2017-q1-update/bin/../lib/gcc/arm-none-eabi/6.3.1/../../../../arm-none-eabi/lib/thumb/v7e-m/fpv4-sp/hard/libc.a(lib_a-dtoa.o)
                0x00000000000073d8                _dtoa_r
 .text.__sflush_r
                0x0000000000008224      0x140 /home/tech/ti/ccsv7/tools/compiler/gcc-arm-none-eabi-6-2017-q1-update/bin/../lib/gcc/arm-none-eabi/6.3.1/../../../../arm-none-eabi/lib/thumb/v7e-m/fpv4-sp/hard/libc.a(lib_a-fflush.o)
                0x0000000000008224                __sflush_r
 .text._fflush_r
                0x0000000000008364       0x54 /home/tech/ti/ccsv7/tools/compiler/gcc-arm-none-eabi-6-2017-q1-update/bin/../lib/gcc/arm-none-eabi/6.3.1/../../../../arm-none-eabi/lib/thumb/v7e-m/fpv4-sp/hard/libc.a(lib_a-fflush.o)
                0x0000000000008364                _fflush_r
 .text.fflush   0x00000000000083b8       0x24 /home/tech/ti/ccsv7/tools/compiler/gcc-arm-none-eabi-6-2017-q1-update/bin/../lib/gcc/arm-none-eabi/6.3.1/../../../../arm-none-eabi/lib/thumb/v7e-m/fpv4-sp/hard/libc.a(lib_a-fflush.o)
                0x00000000000083b8                fflush
 .text._cleanup_r
                0x00000000000083dc        0xc /home/tech/ti/ccsv7/tools/compiler/gcc-arm-none-eabi-6-2017-q1-update/bin/../lib/gcc/arm-none-eabi/6.3.1/../../../../arm-none-eabi/lib/thumb/v7e-m/fpv4-sp/hard/libc.a(lib_a-findfp.o)
                0x00000000000083dc                _cleanup_r
 .text.std.isra.0
                0x00000000000083e8       0x50 /home/tech/ti/ccsv7/tools/compiler/gcc-arm-none-eabi-6-2017-q1-update/bin/../lib/gcc/arm-none-eabi/6.3.1/../../../../arm-none-eabi/lib/thumb/v7e-m/fpv4-sp/hard/libc.a(lib_a-findfp.o)
 .text.__fp_lock
                0x0000000000008438       0x1c /home/tech/ti/ccsv7/tools/compiler/gcc-arm-none-eabi-6-2017-q1-update/bin/../lib/gcc/arm-none-eabi/6.3.1/../../../../arm-none-eabi/lib/thumb/v7e-m/fpv4-sp/hard/libc.a(lib_a-findfp.o)
 .text.__fp_unlock
                0x0000000000008454       0x1c /home/tech/ti/ccsv7/tools/compiler/gcc-arm-none-eabi-6-2017-q1-update/bin/../lib/gcc/arm-none-eabi/6.3.1/../../../../arm-none-eabi/lib/thumb/v7e-m/fpv4-sp/hard/libc.a(lib_a-findfp.o)
 .text.__sfmoreglue
                0x0000000000008470       0x30 /home/tech/ti/ccsv7/tools/compiler/gcc-arm-none-eabi-6-2017-q1-update/bin/../lib/gcc/arm-none-eabi/6.3.1/../../../../arm-none-eabi/lib/thumb/v7e-m/fpv4-sp/hard/libc.a(lib_a-findfp.o)
                0x0000000000008470                __sfmoreglue
 .text._cleanup
                0x00000000000084a0       0x14 /home/tech/ti/ccsv7/tools/compiler/gcc-arm-none-eabi-6-2017-q1-update/bin/../lib/gcc/arm-none-eabi/6.3.1/../../../../arm-none-eabi/lib/thumb/v7e-m/fpv4-sp/hard/libc.a(lib_a-findfp.o)
                0x00000000000084a0                _cleanup
 .text.__sinit  0x00000000000084b4       0x58 /home/tech/ti/ccsv7/tools/compiler/gcc-arm-none-eabi-6-2017-q1-update/bin/../lib/gcc/arm-none-eabi/6.3.1/../../../../arm-none-eabi/lib/thumb/v7e-m/fpv4-sp/hard/libc.a(lib_a-findfp.o)
                0x00000000000084b4                __sinit
 .text.__sfp    0x000000000000850c       0xa8 /home/tech/ti/ccsv7/tools/compiler/gcc-arm-none-eabi-6-2017-q1-update/bin/../lib/gcc/arm-none-eabi/6.3.1/../../../../arm-none-eabi/lib/thumb/v7e-m/fpv4-sp/hard/libc.a(lib_a-findfp.o)
                0x000000000000850c                __sfp
 .text.__sfp_lock_acquire
                0x00000000000085b4        0xc /home/tech/ti/ccsv7/tools/compiler/gcc-arm-none-eabi-6-2017-q1-update/bin/../lib/gcc/arm-none-eabi/6.3.1/../../../../arm-none-eabi/lib/thumb/v7e-m/fpv4-sp/hard/libc.a(lib_a-findfp.o)
                0x00000000000085b4                __sfp_lock_acquire
 .text.__sfp_lock_release
                0x00000000000085c0        0xc /home/tech/ti/ccsv7/tools/compiler/gcc-arm-none-eabi-6-2017-q1-update/bin/../lib/gcc/arm-none-eabi/6.3.1/../../../../arm-none-eabi/lib/thumb/v7e-m/fpv4-sp/hard/libc.a(lib_a-findfp.o)
                0x00000000000085c0                __sfp_lock_release
 .text.__sinit_lock_acquire
                0x00000000000085cc        0xc /home/tech/ti/ccsv7/tools/compiler/gcc-arm-none-eabi-6-2017-q1-update/bin/../lib/gcc/arm-none-eabi/6.3.1/../../../../arm-none-eabi/lib/thumb/v7e-m/fpv4-sp/hard/libc.a(lib_a-findfp.o)
                0x00000000000085cc                __sinit_lock_acquire
 .text.__sinit_lock_release
                0x00000000000085d8        0xc /home/tech/ti/ccsv7/tools/compiler/gcc-arm-none-eabi-6-2017-q1-update/bin/../lib/gcc/arm-none-eabi/6.3.1/../../../../arm-none-eabi/lib/thumb/v7e-m/fpv4-sp/hard/libc.a(lib_a-findfp.o)
                0x00000000000085d8                __sinit_lock_release
 .text.__fp_lock_all
                0x00000000000085e4       0x24 /home/tech/ti/ccsv7/tools/compiler/gcc-arm-none-eabi-6-2017-q1-update/bin/../lib/gcc/arm-none-eabi/6.3.1/../../../../arm-none-eabi/lib/thumb/v7e-m/fpv4-sp/hard/libc.a(lib_a-findfp.o)
                0x00000000000085e4                __fp_lock_all
 .text.__fp_unlock_all
                0x0000000000008608       0x24 /home/tech/ti/ccsv7/tools/compiler/gcc-arm-none-eabi-6-2017-q1-update/bin/../lib/gcc/arm-none-eabi/6.3.1/../../../../arm-none-eabi/lib/thumb/v7e-m/fpv4-sp/hard/libc.a(lib_a-findfp.o)
                0x0000000000008608                __fp_unlock_all
 .text.__libc_fini_array
                0x000000000000862c       0x34 /home/tech/ti/ccsv7/tools/compiler/gcc-arm-none-eabi-6-2017-q1-update/bin/../lib/gcc/arm-none-eabi/6.3.1/../../../../arm-none-eabi/lib/thumb/v7e-m/fpv4-sp/hard/libc.a(lib_a-fini.o)
                0x000000000000862c                __libc_fini_array
 .text._malloc_trim_r
                0x0000000000008660       0xa0 /home/tech/ti/ccsv7/tools/compiler/gcc-arm-none-eabi-6-2017-q1-update/bin/../lib/gcc/arm-none-eabi/6.3.1/../../../../arm-none-eabi/lib/thumb/v7e-m/fpv4-sp/hard/libc.a(lib_a-freer.o)
                0x0000000000008660                _malloc_trim_r
 .text._free_r  0x0000000000008700      0x1cc /home/tech/ti/ccsv7/tools/compiler/gcc-arm-none-eabi-6-2017-q1-update/bin/../lib/gcc/arm-none-eabi/6.3.1/../../../../arm-none-eabi/lib/thumb/v7e-m/fpv4-sp/hard/libc.a(lib_a-freer.o)
                0x0000000000008700                _free_r
 .text._fwalk   0x00000000000088cc       0x4c /home/tech/ti/ccsv7/tools/compiler/gcc-arm-none-eabi-6-2017-q1-update/bin/../lib/gcc/arm-none-eabi/6.3.1/../../../../arm-none-eabi/lib/thumb/v7e-m/fpv4-sp/hard/libc.a(lib_a-fwalk.o)
                0x00000000000088cc                _fwalk
 .text._fwalk_reent
                0x0000000000008918       0x54 /home/tech/ti/ccsv7/tools/compiler/gcc-arm-none-eabi-6-2017-q1-update/bin/../lib/gcc/arm-none-eabi/6.3.1/../../../../arm-none-eabi/lib/thumb/v7e-m/fpv4-sp/hard/libc.a(lib_a-fwalk.o)
                0x0000000000008918                _fwalk_reent
 .text.rshift   0x000000000000896c       0x98 /home/tech/ti/ccsv7/tools/compiler/gcc-arm-none-eabi-6-2017-q1-update/bin/../lib/gcc/arm-none-eabi/6.3.1/../../../../arm-none-eabi/lib/thumb/v7e-m/fpv4-sp/hard/libc.a(lib_a-gdtoa-gethex.o)
 .text.__gethex
                0x0000000000008a04      0x518 /home/tech/ti/ccsv7/tools/compiler/gcc-arm-none-eabi-6-2017-q1-update/bin/../lib/gcc/arm-none-eabi/6.3.1/../../../../arm-none-eabi/lib/thumb/v7e-m/fpv4-sp/hard/libc.a(lib_a-gdtoa-gethex.o)
                0x0000000000008a04                __gethex
 .text.__match  0x0000000000008f1c       0x30 /home/tech/ti/ccsv7/tools/compiler/gcc-arm-none-eabi-6-2017-q1-update/bin/../lib/gcc/arm-none-eabi/6.3.1/../../../../arm-none-eabi/lib/thumb/v7e-m/fpv4-sp/hard/libc.a(lib_a-gdtoa-hexnan.o)
                0x0000000000008f1c                __match
 .text.__hexnan
                0x0000000000008f4c      0x184 /home/tech/ti/ccsv7/tools/compiler/gcc-arm-none-eabi-6-2017-q1-update/bin/../lib/gcc/arm-none-eabi/6.3.1/../../../../arm-none-eabi/lib/thumb/v7e-m/fpv4-sp/hard/libc.a(lib_a-gdtoa-hexnan.o)
                0x0000000000008f4c                __hexnan
 .text._setlocale_r
                0x00000000000090d0       0x40 /home/tech/ti/ccsv7/tools/compiler/gcc-arm-none-eabi-6-2017-q1-update/bin/../lib/gcc/arm-none-eabi/6.3.1/../../../../arm-none-eabi/lib/thumb/v7e-m/fpv4-sp/hard/libc.a(lib_a-locale.o)
                0x00000000000090d0                _setlocale_r
 .text.__locale_mb_cur_max
                0x0000000000009110       0x1c /home/tech/ti/ccsv7/tools/compiler/gcc-arm-none-eabi-6-2017-q1-update/bin/../lib/gcc/arm-none-eabi/6.3.1/../../../../arm-none-eabi/lib/thumb/v7e-m/fpv4-sp/hard/libc.a(lib_a-locale.o)
                0x0000000000009110                __locale_mb_cur_max
 .text.__locale_ctype_ptr_l
                0x000000000000912c        0x8 /home/tech/ti/ccsv7/tools/compiler/gcc-arm-none-eabi-6-2017-q1-update/bin/../lib/gcc/arm-none-eabi/6.3.1/../../../../arm-none-eabi/lib/thumb/v7e-m/fpv4-sp/hard/libc.a(lib_a-locale.o)
                0x000000000000912c                __locale_ctype_ptr_l
 .text.__locale_ctype_ptr
                0x0000000000009134       0x1c /home/tech/ti/ccsv7/tools/compiler/gcc-arm-none-eabi-6-2017-q1-update/bin/../lib/gcc/arm-none-eabi/6.3.1/../../../../arm-none-eabi/lib/thumb/v7e-m/fpv4-sp/hard/libc.a(lib_a-locale.o)
                0x0000000000009134                __locale_ctype_ptr
 .text.setlocale
                0x0000000000009150       0x10 /home/tech/ti/ccsv7/tools/compiler/gcc-arm-none-eabi-6-2017-q1-update/bin/../lib/gcc/arm-none-eabi/6.3.1/../../../../arm-none-eabi/lib/thumb/v7e-m/fpv4-sp/hard/libc.a(lib_a-locale.o)
                0x0000000000009150                setlocale
 .text.__localeconv_l
                0x0000000000009160        0x4 /home/tech/ti/ccsv7/tools/compiler/gcc-arm-none-eabi-6-2017-q1-update/bin/../lib/gcc/arm-none-eabi/6.3.1/../../../../arm-none-eabi/lib/thumb/v7e-m/fpv4-sp/hard/libc.a(lib_a-localeconv.o)
                0x0000000000009160                __localeconv_l
 .text._localeconv_r
                0x0000000000009164       0x1c /home/tech/ti/ccsv7/tools/compiler/gcc-arm-none-eabi-6-2017-q1-update/bin/../lib/gcc/arm-none-eabi/6.3.1/../../../../arm-none-eabi/lib/thumb/v7e-m/fpv4-sp/hard/libc.a(lib_a-localeconv.o)
                0x0000000000009164                _localeconv_r
 .text.localeconv
                0x0000000000009180       0x1c /home/tech/ti/ccsv7/tools/compiler/gcc-arm-none-eabi-6-2017-q1-update/bin/../lib/gcc/arm-none-eabi/6.3.1/../../../../arm-none-eabi/lib/thumb/v7e-m/fpv4-sp/hard/libc.a(lib_a-localeconv.o)
                0x0000000000009180                localeconv
 .text.__retarget_lock_init
                0x000000000000919c        0x4 /home/tech/ti/ccsv7/tools/compiler/gcc-arm-none-eabi-6-2017-q1-update/bin/../lib/gcc/arm-none-eabi/6.3.1/../../../../arm-none-eabi/lib/thumb/v7e-m/fpv4-sp/hard/libc.a(lib_a-lock.o)
                0x000000000000919c                __retarget_lock_init
 .text.__retarget_lock_init_recursive
                0x00000000000091a0        0x4 /home/tech/ti/ccsv7/tools/compiler/gcc-arm-none-eabi-6-2017-q1-update/bin/../lib/gcc/arm-none-eabi/6.3.1/../../../../arm-none-eabi/lib/thumb/v7e-m/fpv4-sp/hard/libc.a(lib_a-lock.o)
                0x00000000000091a0                __retarget_lock_init_recursive
 .text.__retarget_lock_close
                0x00000000000091a4        0x4 /home/tech/ti/ccsv7/tools/compiler/gcc-arm-none-eabi-6-2017-q1-update/bin/../lib/gcc/arm-none-eabi/6.3.1/../../../../arm-none-eabi/lib/thumb/v7e-m/fpv4-sp/hard/libc.a(lib_a-lock.o)
                0x00000000000091a4                __retarget_lock_close
 .text.__retarget_lock_close_recursive
                0x00000000000091a8        0x4 /home/tech/ti/ccsv7/tools/compiler/gcc-arm-none-eabi-6-2017-q1-update/bin/../lib/gcc/arm-none-eabi/6.3.1/../../../../arm-none-eabi/lib/thumb/v7e-m/fpv4-sp/hard/libc.a(lib_a-lock.o)
                0x00000000000091a8                __retarget_lock_close_recursive
 .text.__retarget_lock_acquire
                0x00000000000091ac        0x4 /home/tech/ti/ccsv7/tools/compiler/gcc-arm-none-eabi-6-2017-q1-update/bin/../lib/gcc/arm-none-eabi/6.3.1/../../../../arm-none-eabi/lib/thumb/v7e-m/fpv4-sp/hard/libc.a(lib_a-lock.o)
                0x00000000000091ac                __retarget_lock_acquire
 .text.__retarget_lock_acquire_recursive
                0x00000000000091b0        0x4 /home/tech/ti/ccsv7/tools/compiler/gcc-arm-none-eabi-6-2017-q1-update/bin/../lib/gcc/arm-none-eabi/6.3.1/../../../../arm-none-eabi/lib/thumb/v7e-m/fpv4-sp/hard/libc.a(lib_a-lock.o)
                0x00000000000091b0                __retarget_lock_acquire_recursive
 .text.__retarget_lock_try_acquire
                0x00000000000091b4        0x4 /home/tech/ti/ccsv7/tools/compiler/gcc-arm-none-eabi-6-2017-q1-update/bin/../lib/gcc/arm-none-eabi/6.3.1/../../../../arm-none-eabi/lib/thumb/v7e-m/fpv4-sp/hard/libc.a(lib_a-lock.o)
                0x00000000000091b4                __retarget_lock_try_acquire
 .text.__retarget_lock_try_acquire_recursive
                0x00000000000091b8        0x4 /home/tech/ti/ccsv7/tools/compiler/gcc-arm-none-eabi-6-2017-q1-update/bin/../lib/gcc/arm-none-eabi/6.3.1/../../../../arm-none-eabi/lib/thumb/v7e-m/fpv4-sp/hard/libc.a(lib_a-lock.o)
                0x00000000000091b8                __retarget_lock_try_acquire_recursive
 .text.__retarget_lock_release
                0x00000000000091bc        0x4 /home/tech/ti/ccsv7/tools/compiler/gcc-arm-none-eabi-6-2017-q1-update/bin/../lib/gcc/arm-none-eabi/6.3.1/../../../../arm-none-eabi/lib/thumb/v7e-m/fpv4-sp/hard/libc.a(lib_a-lock.o)
                0x00000000000091bc                __retarget_lock_release
 .text.__retarget_lock_release_recursive
                0x00000000000091c0        0x4 /home/tech/ti/ccsv7/tools/compiler/gcc-arm-none-eabi-6-2017-q1-update/bin/../lib/gcc/arm-none-eabi/6.3.1/../../../../arm-none-eabi/lib/thumb/v7e-m/fpv4-sp/hard/libc.a(lib_a-lock.o)
                0x00000000000091c0                __retarget_lock_release_recursive
 .text.__swhatbuf_r
                0x00000000000091c4       0x5c /home/tech/ti/ccsv7/tools/compiler/gcc-arm-none-eabi-6-2017-q1-update/bin/../lib/gcc/arm-none-eabi/6.3.1/../../../../arm-none-eabi/lib/thumb/v7e-m/fpv4-sp/hard/libc.a(lib_a-makebuf.o)
                0x00000000000091c4                __swhatbuf_r
 .text.__smakebuf_r
                0x0000000000009220       0x94 /home/tech/ti/ccsv7/tools/compiler/gcc-arm-none-eabi-6-2017-q1-update/bin/../lib/gcc/arm-none-eabi/6.3.1/../../../../arm-none-eabi/lib/thumb/v7e-m/fpv4-sp/hard/libc.a(lib_a-makebuf.o)
                0x0000000000009220                __smakebuf_r
 .text._malloc_r
                0x00000000000092b4      0x560 /home/tech/ti/ccsv7/tools/compiler/gcc-arm-none-eabi-6-2017-q1-update/bin/../lib/gcc/arm-none-eabi/6.3.1/../../../../arm-none-eabi/lib/thumb/v7e-m/fpv4-sp/hard/libc.a(lib_a-mallocr.o)
                0x00000000000092b4                _malloc_r
 .text._mbtowc_r
                0x0000000000009814       0x24 /home/tech/ti/ccsv7/tools/compiler/gcc-arm-none-eabi-6-2017-q1-update/bin/../lib/gcc/arm-none-eabi/6.3.1/../../../../arm-none-eabi/lib/thumb/v7e-m/fpv4-sp/hard/libc.a(lib_a-mbtowc_r.o)
                0x0000000000009814                _mbtowc_r
 .text.__ascii_mbtowc
                0x0000000000009838       0x2c /home/tech/ti/ccsv7/tools/compiler/gcc-arm-none-eabi-6-2017-q1-update/bin/../lib/gcc/arm-none-eabi/6.3.1/../../../../arm-none-eabi/lib/thumb/v7e-m/fpv4-sp/hard/libc.a(lib_a-mbtowc_r.o)
                0x0000000000009838                __ascii_mbtowc
 .text.__malloc_lock
                0x0000000000009864        0xc /home/tech/ti/ccsv7/tools/compiler/gcc-arm-none-eabi-6-2017-q1-update/bin/../lib/gcc/arm-none-eabi/6.3.1/../../../../arm-none-eabi/lib/thumb/v7e-m/fpv4-sp/hard/libc.a(lib_a-mlock.o)
                0x0000000000009864                __malloc_lock
 .text.__malloc_unlock
                0x0000000000009870        0xc /home/tech/ti/ccsv7/tools/compiler/gcc-arm-none-eabi-6-2017-q1-update/bin/../lib/gcc/arm-none-eabi/6.3.1/../../../../arm-none-eabi/lib/thumb/v7e-m/fpv4-sp/hard/libc.a(lib_a-mlock.o)
                0x0000000000009870                __malloc_unlock
 .text._Balloc  0x000000000000987c       0x4c /home/tech/ti/ccsv7/tools/compiler/gcc-arm-none-eabi-6-2017-q1-update/bin/../lib/gcc/arm-none-eabi/6.3.1/../../../../arm-none-eabi/lib/thumb/v7e-m/fpv4-sp/hard/libc.a(lib_a-mprec.o)
                0x000000000000987c                _Balloc
 .text._Bfree   0x00000000000098c8       0x14 /home/tech/ti/ccsv7/tools/compiler/gcc-arm-none-eabi-6-2017-q1-update/bin/../lib/gcc/arm-none-eabi/6.3.1/../../../../arm-none-eabi/lib/thumb/v7e-m/fpv4-sp/hard/libc.a(lib_a-mprec.o)
                0x00000000000098c8                _Bfree
 .text.__multadd
                0x00000000000098dc       0x80 /home/tech/ti/ccsv7/tools/compiler/gcc-arm-none-eabi-6-2017-q1-update/bin/../lib/gcc/arm-none-eabi/6.3.1/../../../../arm-none-eabi/lib/thumb/v7e-m/fpv4-sp/hard/libc.a(lib_a-mprec.o)
                0x00000000000098dc                __multadd
 .text.__s2b    0x000000000000995c       0x9c /home/tech/ti/ccsv7/tools/compiler/gcc-arm-none-eabi-6-2017-q1-update/bin/../lib/gcc/arm-none-eabi/6.3.1/../../../../arm-none-eabi/lib/thumb/v7e-m/fpv4-sp/hard/libc.a(lib_a-mprec.o)
                0x000000000000995c                __s2b
 .text.__hi0bits
                0x00000000000099f8       0x40 /home/tech/ti/ccsv7/tools/compiler/gcc-arm-none-eabi-6-2017-q1-update/bin/../lib/gcc/arm-none-eabi/6.3.1/../../../../arm-none-eabi/lib/thumb/v7e-m/fpv4-sp/hard/libc.a(lib_a-mprec.o)
                0x00000000000099f8                __hi0bits
 .text.__lo0bits
                0x0000000000009a38       0x60 /home/tech/ti/ccsv7/tools/compiler/gcc-arm-none-eabi-6-2017-q1-update/bin/../lib/gcc/arm-none-eabi/6.3.1/../../../../arm-none-eabi/lib/thumb/v7e-m/fpv4-sp/hard/libc.a(lib_a-mprec.o)
                0x0000000000009a38                __lo0bits
 .text.__i2b    0x0000000000009a98       0x14 /home/tech/ti/ccsv7/tools/compiler/gcc-arm-none-eabi-6-2017-q1-update/bin/../lib/gcc/arm-none-eabi/6.3.1/../../../../arm-none-eabi/lib/thumb/v7e-m/fpv4-sp/hard/libc.a(lib_a-mprec.o)
                0x0000000000009a98                __i2b
 .text.__multiply
                0x0000000000009aac      0x124 /home/tech/ti/ccsv7/tools/compiler/gcc-arm-none-eabi-6-2017-q1-update/bin/../lib/gcc/arm-none-eabi/6.3.1/../../../../arm-none-eabi/lib/thumb/v7e-m/fpv4-sp/hard/libc.a(lib_a-mprec.o)
                0x0000000000009aac                __multiply
 .text.__pow5mult
                0x0000000000009bd0       0xa0 /home/tech/ti/ccsv7/tools/compiler/gcc-arm-none-eabi-6-2017-q1-update/bin/../lib/gcc/arm-none-eabi/6.3.1/../../../../arm-none-eabi/lib/thumb/v7e-m/fpv4-sp/hard/libc.a(lib_a-mprec.o)
                0x0000000000009bd0                __pow5mult
 .text.__lshift
                0x0000000000009c70       0xa4 /home/tech/ti/ccsv7/tools/compiler/gcc-arm-none-eabi-6-2017-q1-update/bin/../lib/gcc/arm-none-eabi/6.3.1/../../../../arm-none-eabi/lib/thumb/v7e-m/fpv4-sp/hard/libc.a(lib_a-mprec.o)
                0x0000000000009c70                __lshift
 .text.__mcmp   0x0000000000009d14       0x38 /home/tech/ti/ccsv7/tools/compiler/gcc-arm-none-eabi-6-2017-q1-update/bin/../lib/gcc/arm-none-eabi/6.3.1/../../../../arm-none-eabi/lib/thumb/v7e-m/fpv4-sp/hard/libc.a(lib_a-mprec.o)
                0x0000000000009d14                __mcmp
 .text.__mdiff  0x0000000000009d4c      0x108 /home/tech/ti/ccsv7/tools/compiler/gcc-arm-none-eabi-6-2017-q1-update/bin/../lib/gcc/arm-none-eabi/6.3.1/../../../../arm-none-eabi/lib/thumb/v7e-m/fpv4-sp/hard/libc.a(lib_a-mprec.o)
                0x0000000000009d4c                __mdiff
 .text.__ulp    0x0000000000009e54       0x54 /home/tech/ti/ccsv7/tools/compiler/gcc-arm-none-eabi-6-2017-q1-update/bin/../lib/gcc/arm-none-eabi/6.3.1/../../../../arm-none-eabi/lib/thumb/v7e-m/fpv4-sp/hard/libc.a(lib_a-mprec.o)
                0x0000000000009e54                __ulp
 .text.__b2d    0x0000000000009ea8       0xc4 /home/tech/ti/ccsv7/tools/compiler/gcc-arm-none-eabi-6-2017-q1-update/bin/../lib/gcc/arm-none-eabi/6.3.1/../../../../arm-none-eabi/lib/thumb/v7e-m/fpv4-sp/hard/libc.a(lib_a-mprec.o)
                0x0000000000009ea8                __b2d
 .text.__d2b    0x0000000000009f6c       0xbc /home/tech/ti/ccsv7/tools/compiler/gcc-arm-none-eabi-6-2017-q1-update/bin/../lib/gcc/arm-none-eabi/6.3.1/../../../../arm-none-eabi/lib/thumb/v7e-m/fpv4-sp/hard/libc.a(lib_a-mprec.o)
                0x0000000000009f6c                __d2b
 .text.__ratio  0x000000000000a028       0x60 /home/tech/ti/ccsv7/tools/compiler/gcc-arm-none-eabi-6-2017-q1-update/bin/../lib/gcc/arm-none-eabi/6.3.1/../../../../arm-none-eabi/lib/thumb/v7e-m/fpv4-sp/hard/libc.a(lib_a-mprec.o)
                0x000000000000a028                __ratio
 .text._mprec_log10
                0x000000000000a088       0x40 /home/tech/ti/ccsv7/tools/compiler/gcc-arm-none-eabi-6-2017-q1-update/bin/../lib/gcc/arm-none-eabi/6.3.1/../../../../arm-none-eabi/lib/thumb/v7e-m/fpv4-sp/hard/libc.a(lib_a-mprec.o)
                0x000000000000a088                _mprec_log10
 .text.__copybits
                0x000000000000a0c8       0x48 /home/tech/ti/ccsv7/tools/compiler/gcc-arm-none-eabi-6-2017-q1-update/bin/../lib/gcc/arm-none-eabi/6.3.1/../../../../arm-none-eabi/lib/thumb/v7e-m/fpv4-sp/hard/libc.a(lib_a-mprec.o)
                0x000000000000a0c8                __copybits
 .text.__any_on
                0x000000000000a110       0x60 /home/tech/ti/ccsv7/tools/compiler/gcc-arm-none-eabi-6-2017-q1-update/bin/../lib/gcc/arm-none-eabi/6.3.1/../../../../arm-none-eabi/lib/thumb/v7e-m/fpv4-sp/hard/libc.a(lib_a-mprec.o)
                0x000000000000a110                __any_on
 .text._putc_r  0x000000000000a170       0x70 /home/tech/ti/ccsv7/tools/compiler/gcc-arm-none-eabi-6-2017-q1-update/bin/../lib/gcc/arm-none-eabi/6.3.1/../../../../arm-none-eabi/lib/thumb/v7e-m/fpv4-sp/hard/libc.a(lib_a-putc.o)
                0x000000000000a170                _putc_r
 .text.putc     0x000000000000a1e0       0x78 /home/tech/ti/ccsv7/tools/compiler/gcc-arm-none-eabi-6-2017-q1-update/bin/../lib/gcc/arm-none-eabi/6.3.1/../../../../arm-none-eabi/lib/thumb/v7e-m/fpv4-sp/hard/libc.a(lib_a-putc.o)
                0x000000000000a1e0                putc
 .text._sbrk_r  0x000000000000a258       0x24 /home/tech/ti/ccsv7/tools/compiler/gcc-arm-none-eabi-6-2017-q1-update/bin/../lib/gcc/arm-none-eabi/6.3.1/../../../../arm-none-eabi/lib/thumb/v7e-m/fpv4-sp/hard/libc.a(lib_a-sbrkr.o)
                0x000000000000a258                _sbrk_r
 .text.nanf     0x000000000000a27c        0xc /home/tech/ti/ccsv7/tools/compiler/gcc-arm-none-eabi-6-2017-q1-update/bin/../lib/gcc/arm-none-eabi/6.3.1/../../../../arm-none-eabi/lib/thumb/v7e-m/fpv4-sp/hard/libc.a(lib_a-sf_nan.o)
                0x000000000000a27c                nanf
 .text.__sread  0x000000000000a288       0x24 /home/tech/ti/ccsv7/tools/compiler/gcc-arm-none-eabi-6-2017-q1-update/bin/../lib/gcc/arm-none-eabi/6.3.1/../../../../arm-none-eabi/lib/thumb/v7e-m/fpv4-sp/hard/libc.a(lib_a-stdio.o)
                0x000000000000a288                __sread
 .text.__seofread
                0x000000000000a2ac        0x4 /home/tech/ti/ccsv7/tools/compiler/gcc-arm-none-eabi-6-2017-q1-update/bin/../lib/gcc/arm-none-eabi/6.3.1/../../../../arm-none-eabi/lib/thumb/v7e-m/fpv4-sp/hard/libc.a(lib_a-stdio.o)
                0x000000000000a2ac                __seofread
 .text.__swrite
                0x000000000000a2b0       0x3c /home/tech/ti/ccsv7/tools/compiler/gcc-arm-none-eabi-6-2017-q1-update/bin/../lib/gcc/arm-none-eabi/6.3.1/../../../../arm-none-eabi/lib/thumb/v7e-m/fpv4-sp/hard/libc.a(lib_a-stdio.o)
                0x000000000000a2b0                __swrite
 .text.__sseek  0x000000000000a2ec       0x20 /home/tech/ti/ccsv7/tools/compiler/gcc-arm-none-eabi-6-2017-q1-update/bin/../lib/gcc/arm-none-eabi/6.3.1/../../../../arm-none-eabi/lib/thumb/v7e-m/fpv4-sp/hard/libc.a(lib_a-stdio.o)
                0x000000000000a2ec                __sseek
 .text.__sclose
                0x000000000000a30c        0x8 /home/tech/ti/ccsv7/tools/compiler/gcc-arm-none-eabi-6-2017-q1-update/bin/../lib/gcc/arm-none-eabi/6.3.1/../../../../arm-none-eabi/lib/thumb/v7e-m/fpv4-sp/hard/libc.a(lib_a-stdio.o)
                0x000000000000a30c                __sclose
 .text.strncmp  0x000000000000a314       0xa4 /home/tech/ti/ccsv7/tools/compiler/gcc-arm-none-eabi-6-2017-q1-update/bin/../lib/gcc/arm-none-eabi/6.3.1/../../../../arm-none-eabi/lib/thumb/v7e-m/fpv4-sp/hard/libc.a(lib_a-strncmp.o)
                0x000000000000a314                strncmp
 .text.__ssprint_r
                0x000000000000a3b8       0xfc /home/tech/ti/ccsv7/tools/compiler/gcc-arm-none-eabi-6-2017-q1-update/bin/../lib/gcc/arm-none-eabi/6.3.1/../../../../arm-none-eabi/lib/thumb/v7e-m/fpv4-sp/hard/libc.a(lib_a-svfiprintf.o)
                0x000000000000a3b8                __ssprint_r
 .text._svfiprintf_r
                0x000000000000a4b4      0xa54 /home/tech/ti/ccsv7/tools/compiler/gcc-arm-none-eabi-6-2017-q1-update/bin/../lib/gcc/arm-none-eabi/6.3.1/../../../../arm-none-eabi/lib/thumb/v7e-m/fpv4-sp/hard/libc.a(lib_a-svfiprintf.o)
                0x000000000000a4b4                _svfiprintf_r
 .text.__sprint_r.part.0
                0x000000000000af08       0x80 /home/tech/ti/ccsv7/tools/compiler/gcc-arm-none-eabi-6-2017-q1-update/bin/../lib/gcc/arm-none-eabi/6.3.1/../../../../arm-none-eabi/lib/thumb/v7e-m/fpv4-sp/hard/libc.a(lib_a-vfiprintf.o)
 .text.__sprint_r
                0x000000000000af88       0x14 /home/tech/ti/ccsv7/tools/compiler/gcc-arm-none-eabi-6-2017-q1-update/bin/../lib/gcc/arm-none-eabi/6.3.1/../../../../arm-none-eabi/lib/thumb/v7e-m/fpv4-sp/hard/libc.a(lib_a-vfiprintf.o)
                0x000000000000af88                __sprint_r
 .text._vfiprintf_r
                0x000000000000af9c      0xc90 /home/tech/ti/ccsv7/tools/compiler/gcc-arm-none-eabi-6-2017-q1-update/bin/../lib/gcc/arm-none-eabi/6.3.1/../../../../arm-none-eabi/lib/thumb/v7e-m/fpv4-sp/hard/libc.a(lib_a-vfiprintf.o)
                0x000000000000af9c                _vfiprintf_r
 .text.vfiprintf
                0x000000000000bc2c       0x18 /home/tech/ti/ccsv7/tools/compiler/gcc-arm-none-eabi-6-2017-q1-update/bin/../lib/gcc/arm-none-eabi/6.3.1/../../../../arm-none-eabi/lib/thumb/v7e-m/fpv4-sp/hard/libc.a(lib_a-vfiprintf.o)
                0x000000000000bc2c                vfiprintf
 .text.__sbprintf
                0x000000000000bc44       0x84 /home/tech/ti/ccsv7/tools/compiler/gcc-arm-none-eabi-6-2017-q1-update/bin/../lib/gcc/arm-none-eabi/6.3.1/../../../../arm-none-eabi/lib/thumb/v7e-m/fpv4-sp/hard/libc.a(lib_a-vfiprintf.o)
 .text.__swbuf_r
                0x000000000000bcc8       0xb0 /home/tech/ti/ccsv7/tools/compiler/gcc-arm-none-eabi-6-2017-q1-update/bin/../lib/gcc/arm-none-eabi/6.3.1/../../../../arm-none-eabi/lib/thumb/v7e-m/fpv4-sp/hard/libc.a(lib_a-wbuf.o)
                0x000000000000bcc8                __swbuf_r
 .text.__swbuf  0x000000000000bd78       0x10 /home/tech/ti/ccsv7/tools/compiler/gcc-arm-none-eabi-6-2017-q1-update/bin/../lib/gcc/arm-none-eabi/6.3.1/../../../../arm-none-eabi/lib/thumb/v7e-m/fpv4-sp/hard/libc.a(lib_a-wbuf.o)
                0x000000000000bd78                __swbuf
 .text._wctomb_r
                0x000000000000bd88       0x24 /home/tech/ti/ccsv7/tools/compiler/gcc-arm-none-eabi-6-2017-q1-update/bin/../lib/gcc/arm-none-eabi/6.3.1/../../../../arm-none-eabi/lib/thumb/v7e-m/fpv4-sp/hard/libc.a(lib_a-wctomb_r.o)
                0x000000000000bd88                _wctomb_r
 .text.__ascii_wctomb
                0x000000000000bdac       0x1c /home/tech/ti/ccsv7/tools/compiler/gcc-arm-none-eabi-6-2017-q1-update/bin/../lib/gcc/arm-none-eabi/6.3.1/../../../../arm-none-eabi/lib/thumb/v7e-m/fpv4-sp/hard/libc.a(lib_a-wctomb_r.o)
                0x000000000000bdac                __ascii_wctomb
 .text._write_r
                0x000000000000bdc8       0x2c /home/tech/ti/ccsv7/tools/compiler/gcc-arm-none-eabi-6-2017-q1-update/bin/../lib/gcc/arm-none-eabi/6.3.1/../../../../arm-none-eabi/lib/thumb/v7e-m/fpv4-sp/hard/libc.a(lib_a-writer.o)
                0x000000000000bdc8                _write_r
 .text.__register_exitproc
                0x000000000000bdf4       0xc4 /home/tech/ti/ccsv7/tools/compiler/gcc-arm-none-eabi-6-2017-q1-update/bin/../lib/gcc/arm-none-eabi/6.3.1/../../../../arm-none-eabi/lib/thumb/v7e-m/fpv4-sp/hard/libc.a(lib_a-__atexit.o)
                0x000000000000bdf4                __register_exitproc
 .text._calloc_r
                0x000000000000beb8       0x60 /home/tech/ti/ccsv7/tools/compiler/gcc-arm-none-eabi-6-2017-q1-update/bin/../lib/gcc/arm-none-eabi/6.3.1/../../../../arm-none-eabi/lib/thumb/v7e-m/fpv4-sp/hard/libc.a(lib_a-callocr.o)
                0x000000000000beb8                _calloc_r
 .text._close_r
                0x000000000000bf18       0x24 /home/tech/ti/ccsv7/tools/compiler/gcc-arm-none-eabi-6-2017-q1-update/bin/../lib/gcc/arm-none-eabi/6.3.1/../../../../arm-none-eabi/lib/thumb/v7e-m/fpv4-sp/hard/libc.a(lib_a-closer.o)
                0x000000000000bf18                _close_r
 .text._fclose_r
                0x000000000000bf3c       0xc4 /home/tech/ti/ccsv7/tools/compiler/gcc-arm-none-eabi-6-2017-q1-update/bin/../lib/gcc/arm-none-eabi/6.3.1/../../../../arm-none-eabi/lib/thumb/v7e-m/fpv4-sp/hard/libc.a(lib_a-fclose.o)
                0x000000000000bf3c                _fclose_r
 .text.fclose   0x000000000000c000       0x10 /home/tech/ti/ccsv7/tools/compiler/gcc-arm-none-eabi-6-2017-q1-update/bin/../lib/gcc/arm-none-eabi/6.3.1/../../../../arm-none-eabi/lib/thumb/v7e-m/fpv4-sp/hard/libc.a(lib_a-fclose.o)
                0x000000000000c000                fclose
 .text.__fputwc
                0x000000000000c010       0xa0 /home/tech/ti/ccsv7/tools/compiler/gcc-arm-none-eabi-6-2017-q1-update/bin/../lib/gcc/arm-none-eabi/6.3.1/../../../../arm-none-eabi/lib/thumb/v7e-m/fpv4-sp/hard/libc.a(lib_a-fputwc.o)
                0x000000000000c010                __fputwc
 .text._fputwc_r
                0x000000000000c0b0       0x68 /home/tech/ti/ccsv7/tools/compiler/gcc-arm-none-eabi-6-2017-q1-update/bin/../lib/gcc/arm-none-eabi/6.3.1/../../../../arm-none-eabi/lib/thumb/v7e-m/fpv4-sp/hard/libc.a(lib_a-fputwc.o)
                0x000000000000c0b0                _fputwc_r
 .text.fputwc   0x000000000000c118       0x28 /home/tech/ti/ccsv7/tools/compiler/gcc-arm-none-eabi-6-2017-q1-update/bin/../lib/gcc/arm-none-eabi/6.3.1/../../../../arm-none-eabi/lib/thumb/v7e-m/fpv4-sp/hard/libc.a(lib_a-fputwc.o)
                0x000000000000c118                fputwc
 .text._fstat_r
                0x000000000000c140       0x28 /home/tech/ti/ccsv7/tools/compiler/gcc-arm-none-eabi-6-2017-q1-update/bin/../lib/gcc/arm-none-eabi/6.3.1/../../../../arm-none-eabi/lib/thumb/v7e-m/fpv4-sp/hard/libc.a(lib_a-fstatr.o)
                0x000000000000c140                _fstat_r
 .text.__sfvwrite_r
                0x000000000000c168      0x2f0 /home/tech/ti/ccsv7/tools/compiler/gcc-arm-none-eabi-6-2017-q1-update/bin/../lib/gcc/arm-none-eabi/6.3.1/../../../../arm-none-eabi/lib/thumb/v7e-m/fpv4-sp/hard/libc.a(lib_a-fvwrite.o)
                0x000000000000c168                __sfvwrite_r
 .text._isatty_r
                0x000000000000c458       0x24 /home/tech/ti/ccsv7/tools/compiler/gcc-arm-none-eabi-6-2017-q1-update/bin/../lib/gcc/arm-none-eabi/6.3.1/../../../../arm-none-eabi/lib/thumb/v7e-m/fpv4-sp/hard/libc.a(lib_a-isattyr.o)
                0x000000000000c458                _isatty_r
 .text._lseek_r
                0x000000000000c47c       0x2c /home/tech/ti/ccsv7/tools/compiler/gcc-arm-none-eabi-6-2017-q1-update/bin/../lib/gcc/arm-none-eabi/6.3.1/../../../../arm-none-eabi/lib/thumb/v7e-m/fpv4-sp/hard/libc.a(lib_a-lseekr.o)
                0x000000000000c47c                _lseek_r
 .text.memmove  0x000000000000c4a8       0xc8 /home/tech/ti/ccsv7/tools/compiler/gcc-arm-none-eabi-6-2017-q1-update/bin/../lib/gcc/arm-none-eabi/6.3.1/../../../../arm-none-eabi/lib/thumb/v7e-m/fpv4-sp/hard/libc.a(lib_a-memmove.o)
                0x000000000000c4a8                memmove
 .text._read_r  0x000000000000c570       0x2c /home/tech/ti/ccsv7/tools/compiler/gcc-arm-none-eabi-6-2017-q1-update/bin/../lib/gcc/arm-none-eabi/6.3.1/../../../../arm-none-eabi/lib/thumb/v7e-m/fpv4-sp/hard/libc.a(lib_a-readr.o)
                0x000000000000c570                _read_r
 .text._realloc_r
                0x000000000000c59c      0x34c /home/tech/ti/ccsv7/tools/compiler/gcc-arm-none-eabi-6-2017-q1-update/bin/../lib/gcc/arm-none-eabi/6.3.1/../../../../arm-none-eabi/lib/thumb/v7e-m/fpv4-sp/hard/libc.a(lib_a-reallocr.o)
                0x000000000000c59c                _realloc_r
 .text.cleanup_glue
                0x000000000000c8e8       0x1c /home/tech/ti/ccsv7/tools/compiler/gcc-arm-none-eabi-6-2017-q1-update/bin/../lib/gcc/arm-none-eabi/6.3.1/../../../../arm-none-eabi/lib/thumb/v7e-m/fpv4-sp/hard/libc.a(lib_a-reent.o)
                0x000000000000c8e8                cleanup_glue
 .text._reclaim_reent
                0x000000000000c904       0x88 /home/tech/ti/ccsv7/tools/compiler/gcc-arm-none-eabi-6-2017-q1-update/bin/../lib/gcc/arm-none-eabi/6.3.1/../../../../arm-none-eabi/lib/thumb/v7e-m/fpv4-sp/hard/libc.a(lib_a-reent.o)
                0x000000000000c904                _reclaim_reent
 .text._wcrtomb_r
                0x000000000000c98c       0x54 /home/tech/ti/ccsv7/tools/compiler/gcc-arm-none-eabi-6-2017-q1-update/bin/../lib/gcc/arm-none-eabi/6.3.1/../../../../arm-none-eabi/lib/thumb/v7e-m/fpv4-sp/hard/libc.a(lib_a-wcrtomb.o)
                0x000000000000c98c                _wcrtomb_r
 .text.wcrtomb  0x000000000000c9e0       0x4c /home/tech/ti/ccsv7/tools/compiler/gcc-arm-none-eabi-6-2017-q1-update/bin/../lib/gcc/arm-none-eabi/6.3.1/../../../../arm-none-eabi/lib/thumb/v7e-m/fpv4-sp/hard/libc.a(lib_a-wcrtomb.o)
                0x000000000000c9e0                wcrtomb
 .text.findslot
                0x000000000000ca2c       0x38 /home/tech/ti/ccsv7/tools/compiler/gcc-arm-none-eabi-6-2017-q1-update/bin/../lib/gcc/arm-none-eabi/6.3.1/../../../../arm-none-eabi/lib/thumb/v7e-m/fpv4-sp/hard/librdimon.a(rdimon-syscalls.o)
 .text.checkerror.part.0
                0x000000000000ca64       0x1c /home/tech/ti/ccsv7/tools/compiler/gcc-arm-none-eabi-6-2017-q1-update/bin/../lib/gcc/arm-none-eabi/6.3.1/../../../../arm-none-eabi/lib/thumb/v7e-m/fpv4-sp/hard/librdimon.a(rdimon-syscalls.o)
 .text.initialise_monitor_handles
                0x000000000000ca80       0xa8 /home/tech/ti/ccsv7/tools/compiler/gcc-arm-none-eabi-6-2017-q1-update/bin/../lib/gcc/arm-none-eabi/6.3.1/../../../../arm-none-eabi/lib/thumb/v7e-m/fpv4-sp/hard/librdimon.a(rdimon-syscalls.o)
                0x000000000000ca80                initialise_monitor_handles
 .text._swiread
                0x000000000000cb28       0x28 /home/tech/ti/ccsv7/tools/compiler/gcc-arm-none-eabi-6-2017-q1-update/bin/../lib/gcc/arm-none-eabi/6.3.1/../../../../arm-none-eabi/lib/thumb/v7e-m/fpv4-sp/hard/librdimon.a(rdimon-syscalls.o)
                0x000000000000cb28                _swiread
 .text._read    0x000000000000cb50       0x50 /home/tech/ti/ccsv7/tools/compiler/gcc-arm-none-eabi-6-2017-q1-update/bin/../lib/gcc/arm-none-eabi/6.3.1/../../../../arm-none-eabi/lib/thumb/v7e-m/fpv4-sp/hard/librdimon.a(rdimon-syscalls.o)
                0x000000000000cb50                _read
 .text._swilseek
                0x000000000000cba0       0x94 /home/tech/ti/ccsv7/tools/compiler/gcc-arm-none-eabi-6-2017-q1-update/bin/../lib/gcc/arm-none-eabi/6.3.1/../../../../arm-none-eabi/lib/thumb/v7e-m/fpv4-sp/hard/librdimon.a(rdimon-syscalls.o)
                0x000000000000cba0                _swilseek
 .text._lseek   0x000000000000cc34        0x4 /home/tech/ti/ccsv7/tools/compiler/gcc-arm-none-eabi-6-2017-q1-update/bin/../lib/gcc/arm-none-eabi/6.3.1/../../../../arm-none-eabi/lib/thumb/v7e-m/fpv4-sp/hard/librdimon.a(rdimon-syscalls.o)
                0x000000000000cc34                _lseek
 .text._swiwrite
                0x000000000000cc38       0x28 /home/tech/ti/ccsv7/tools/compiler/gcc-arm-none-eabi-6-2017-q1-update/bin/../lib/gcc/arm-none-eabi/6.3.1/../../../../arm-none-eabi/lib/thumb/v7e-m/fpv4-sp/hard/librdimon.a(rdimon-syscalls.o)
                0x000000000000cc38                _swiwrite
 .text._write   0x000000000000cc60       0x74 /home/tech/ti/ccsv7/tools/compiler/gcc-arm-none-eabi-6-2017-q1-update/bin/../lib/gcc/arm-none-eabi/6.3.1/../../../../arm-none-eabi/lib/thumb/v7e-m/fpv4-sp/hard/librdimon.a(rdimon-syscalls.o)
                0x000000000000cc60                _write
 .text._swiclose
                0x000000000000ccd4       0x28 /home/tech/ti/ccsv7/tools/compiler/gcc-arm-none-eabi-6-2017-q1-update/bin/../lib/gcc/arm-none-eabi/6.3.1/../../../../arm-none-eabi/lib/thumb/v7e-m/fpv4-sp/hard/librdimon.a(rdimon-syscalls.o)
                0x000000000000ccd4                _swiclose
 .text._close   0x000000000000ccfc       0x64 /home/tech/ti/ccsv7/tools/compiler/gcc-arm-none-eabi-6-2017-q1-update/bin/../lib/gcc/arm-none-eabi/6.3.1/../../../../arm-none-eabi/lib/thumb/v7e-m/fpv4-sp/hard/librdimon.a(rdimon-syscalls.o)
                0x000000000000ccfc                _close
 .text._getpid  0x000000000000cd60        0x4 /home/tech/ti/ccsv7/tools/compiler/gcc-arm-none-eabi-6-2017-q1-update/bin/../lib/gcc/arm-none-eabi/6.3.1/../../../../arm-none-eabi/lib/thumb/v7e-m/fpv4-sp/hard/librdimon.a(rdimon-syscalls.o)
                0x000000000000cd60                _getpid
 .text._sbrk    0x000000000000cd64       0x4c /home/tech/ti/ccsv7/tools/compiler/gcc-arm-none-eabi-6-2017-q1-update/bin/../lib/gcc/arm-none-eabi/6.3.1/../../../../arm-none-eabi/lib/thumb/v7e-m/fpv4-sp/hard/librdimon.a(rdimon-syscalls.o)
                0x000000000000cd64                _sbrk
 .text._swistat
                0x000000000000cdb0       0x48 /home/tech/ti/ccsv7/tools/compiler/gcc-arm-none-eabi-6-2017-q1-update/bin/../lib/gcc/arm-none-eabi/6.3.1/../../../../arm-none-eabi/lib/thumb/v7e-m/fpv4-sp/hard/librdimon.a(rdimon-syscalls.o)
                0x000000000000cdb0                _swistat
 .text._fstat   0x000000000000cdf8       0x1c /home/tech/ti/ccsv7/tools/compiler/gcc-arm-none-eabi-6-2017-q1-update/bin/../lib/gcc/arm-none-eabi/6.3.1/../../../../arm-none-eabi/lib/thumb/v7e-m/fpv4-sp/hard/librdimon.a(rdimon-syscalls.o)
                0x000000000000cdf8                _fstat
 .text._stat    0x000000000000ce14       0x3c /home/tech/ti/ccsv7/tools/compiler/gcc-arm-none-eabi-6-2017-q1-update/bin/../lib/gcc/arm-none-eabi/6.3.1/../../../../arm-none-eabi/lib/thumb/v7e-m/fpv4-sp/hard/librdimon.a(rdimon-syscalls.o)
                0x000000000000ce14                _stat
 .text._swiopen
                0x000000000000ce50       0xd8 /home/tech/ti/ccsv7/tools/compiler/gcc-arm-none-eabi-6-2017-q1-update/bin/../lib/gcc/arm-none-eabi/6.3.1/../../../../arm-none-eabi/lib/thumb/v7e-m/fpv4-sp/hard/librdimon.a(rdimon-syscalls.o)
                0x000000000000ce50                _swiopen
 .text._open    0x000000000000cf28       0x14 /home/tech/ti/ccsv7/tools/compiler/gcc-arm-none-eabi-6-2017-q1-update/bin/../lib/gcc/arm-none-eabi/6.3.1/../../../../arm-none-eabi/lib/thumb/v7e-m/fpv4-sp/hard/librdimon.a(rdimon-syscalls.o)
                0x000000000000cf28                _open
 .text._link    0x000000000000cf3c       0x10 /home/tech/ti/ccsv7/tools/compiler/gcc-arm-none-eabi-6-2017-q1-update/bin/../lib/gcc/arm-none-eabi/6.3.1/../../../../arm-none-eabi/lib/thumb/v7e-m/fpv4-sp/hard/librdimon.a(rdimon-syscalls.o)
                0x000000000000cf3c                _link
 .text._unlink  0x000000000000cf4c       0x40 /home/tech/ti/ccsv7/tools/compiler/gcc-arm-none-eabi-6-2017-q1-update/bin/../lib/gcc/arm-none-eabi/6.3.1/../../../../arm-none-eabi/lib/thumb/v7e-m/fpv4-sp/hard/librdimon.a(rdimon-syscalls.o)
                0x000000000000cf4c                _unlink
 .text._gettimeofday
                0x000000000000cf8c       0x24 /home/tech/ti/ccsv7/tools/compiler/gcc-arm-none-eabi-6-2017-q1-update/bin/../lib/gcc/arm-none-eabi/6.3.1/../../../../arm-none-eabi/lib/thumb/v7e-m/fpv4-sp/hard/librdimon.a(rdimon-syscalls.o)
                0x000000000000cf8c                _gettimeofday
 .text._clock   0x000000000000cfb0       0x14 /home/tech/ti/ccsv7/tools/compiler/gcc-arm-none-eabi-6-2017-q1-update/bin/../lib/gcc/arm-none-eabi/6.3.1/../../../../arm-none-eabi/lib/thumb/v7e-m/fpv4-sp/hard/librdimon.a(rdimon-syscalls.o)
                0x000000000000cfb0                _clock
 .text._times   0x000000000000cfc4       0x20 /home/tech/ti/ccsv7/tools/compiler/gcc-arm-none-eabi-6-2017-q1-update/bin/../lib/gcc/arm-none-eabi/6.3.1/../../../../arm-none-eabi/lib/thumb/v7e-m/fpv4-sp/hard/librdimon.a(rdimon-syscalls.o)
                0x000000000000cfc4                _times
 .text._isatty  0x000000000000cfe4       0x3c /home/tech/ti/ccsv7/tools/compiler/gcc-arm-none-eabi-6-2017-q1-update/bin/../lib/gcc/arm-none-eabi/6.3.1/../../../../arm-none-eabi/lib/thumb/v7e-m/fpv4-sp/hard/librdimon.a(rdimon-syscalls.o)
                0x000000000000cfe4                _isatty
 .text._system  0x000000000000d020       0x44 /home/tech/ti/ccsv7/tools/compiler/gcc-arm-none-eabi-6-2017-q1-update/bin/../lib/gcc/arm-none-eabi/6.3.1/../../../../arm-none-eabi/lib/thumb/v7e-m/fpv4-sp/hard/librdimon.a(rdimon-syscalls.o)
                0x000000000000d020                _system
 .text._rename  0x000000000000d064       0x3c /home/tech/ti/ccsv7/tools/compiler/gcc-arm-none-eabi-6-2017-q1-update/bin/../lib/gcc/arm-none-eabi/6.3.1/../../../../arm-none-eabi/lib/thumb/v7e-m/fpv4-sp/hard/librdimon.a(rdimon-syscalls.o)
                0x000000000000d064                _rename
 .text._exit    0x000000000000d0a0        0x8 /home/tech/ti/ccsv7/tools/compiler/gcc-arm-none-eabi-6-2017-q1-update/bin/../lib/gcc/arm-none-eabi/6.3.1/../../../../arm-none-eabi/lib/thumb/v7e-m/fpv4-sp/hard/librdimon.a(rdimon-_exit.o)
                0x000000000000d0a0                _exit
 .text._kill    0x000000000000d0a8       0x20 /home/tech/ti/ccsv7/tools/compiler/gcc-arm-none-eabi-6-2017-q1-update/bin/../lib/gcc/arm-none-eabi/6.3.1/../../../../arm-none-eabi/lib/thumb/v7e-m/fpv4-sp/hard/librdimon.a(rdimon-_kill.o)
                0x000000000000d0a8                _kill
 .text.__errno  0x000000000000d0c8        0xc /home/tech/ti/ccsv7/tools/compiler/gcc-arm-none-eabi-6-2017-q1-update/bin/../lib/gcc/arm-none-eabi/6.3.1/../../../../arm-none-eabi/lib/thumb/v7e-m/fpv4-sp/hard/libc.a(lib_a-errno.o)
                0x000000000000d0c8                __errno
                0x000000000000d0d4                . = ALIGN (0x4)
 *(.ctors)
                0x000000000000d0d4                . = ALIGN (0x4)
 *(.dtors)
                0x000000000000d0d4                . = ALIGN (0x4)
                0x000000000000d0d4                __init_array_start = .
 *(.init_array*)
 .init_array    0x000000000000d0d4        0x4 /home/tech/ti/ccsv7/tools/compiler/gcc-arm-none-eabi-6-2017-q1-update/bin/../lib/gcc/arm-none-eabi/6.3.1/thumb/v7e-m/fpv4-sp/hard/crtbegin.o
 .init_array.00000
                0x000000000000d0d8        0x4 /home/tech/ti/ccsv7/tools/compiler/gcc-arm-none-eabi-6-2017-q1-update/bin/../lib/gcc/arm-none-eabi/6.3.1/../../../../arm-none-eabi/lib/thumb/v7e-m/fpv4-sp/hard/libc.a(lib_a-__call_atexit.o)
                0x000000000000d0dc                __init_array_end = .
 *(.init)
 .init          0x000000000000d0dc        0x4 /home/tech/ti/ccsv7/tools/compiler/gcc-arm-none-eabi-6-2017-q1-update/bin/../lib/gcc/arm-none-eabi/6.3.1/thumb/v7e-m/fpv4-sp/hard/crti.o
                0x000000000000d0dc                _init
 .init          0x000000000000d0e0        0x8 /home/tech/ti/ccsv7/tools/compiler/gcc-arm-none-eabi-6-2017-q1-update/bin/../lib/gcc/arm-none-eabi/6.3.1/thumb/v7e-m/fpv4-sp/hard/crtn.o
 *(.fini*)
 .fini          0x000000000000d0e8        0x4 /home/tech/ti/ccsv7/tools/compiler/gcc-arm-none-eabi-6-2017-q1-update/bin/../lib/gcc/arm-none-eabi/6.3.1/thumb/v7e-m/fpv4-sp/hard/crti.o
                0x000000000000d0e8                _fini
 .fini_array    0x000000000000d0ec        0x4 /home/tech/ti/ccsv7/tools/compiler/gcc-arm-none-eabi-6-2017-q1-update/bin/../lib/gcc/arm-none-eabi/6.3.1/thumb/v7e-m/fpv4-sp/hard/crtbegin.o
 .fini          0x000000000000d0f0        0x8 /home/tech/ti/ccsv7/tools/compiler/gcc-arm-none-eabi-6-2017-q1-update/bin/../lib/gcc/arm-none-eabi/6.3.1/thumb/v7e-m/fpv4-sp/hard/crtn.o
                [!provide]                        PROVIDE (__etext, .)
                [!provide]                        PROVIDE (_etext, .)
                [!provide]                        PROVIDE (etext, .)

.glue_7         0x000000000000d0f8        0x0
 .glue_7        0x000000000000d0f8        0x0 linker stubs

.glue_7t        0x000000000000d0f8        0x0
 .glue_7t       0x000000000000d0f8        0x0 linker stubs

.vfp11_veneer   0x000000000000d0f8        0x0
 .vfp11_veneer  0x000000000000d0f8        0x0 linker stubs

.v4_bx          0x000000000000d0f8        0x0
 .v4_bx         0x000000000000d0f8        0x0 linker stubs

.iplt           0x000000000000d0f8        0x0
 .iplt          0x000000000000d0f8        0x0 /home/tech/ti/ccsv7/tools/compiler/gcc-arm-none-eabi-6-2017-q1-update/bin/../lib/gcc/arm-none-eabi/6.3.1/thumb/v7e-m/fpv4-sp/hard/crtbegin.o

.text:GPIOPinWrite
                0x000000000000d0f8        0x6
 .text:GPIOPinWrite
                0x000000000000d0f8        0x6 ../ccs/Debug/driverlib.lib(gpio.obj)
                0x000000000000d0f8                GPIOPinWrite

.text:GPIOPinWakeStatus
                0x000000000000d0fe        0x6
 .text:GPIOPinWakeStatus
                0x000000000000d0fe        0x6 ../ccs/Debug/driverlib.lib(gpio.obj)
                0x000000000000d0fe                GPIOPinWakeStatus

.text:GPIODirModeSet
                0x000000000000d104       0x2a
 .text:GPIODirModeSet
                0x000000000000d104       0x2a ../ccs/Debug/driverlib.lib(gpio.obj)
                0x000000000000d104                GPIODirModeSet

.text:GPIOPadConfigSet
                0x000000000000d12e      0x132
 .text:GPIOPadConfigSet
                0x000000000000d12e      0x132 ../ccs/Debug/driverlib.lib(gpio.obj)
                0x000000000000d12e                GPIOPadConfigSet

.text:GPIOPinTypeWakeLow
                0x000000000000d260       0x14
 .text:GPIOPinTypeWakeLow
                0x000000000000d260       0x14 ../ccs/Debug/driverlib.lib(gpio.obj)
                0x000000000000d260                GPIOPinTypeWakeLow

.text:GPIOPinTypeWakeHigh
                0x000000000000d274       0x14
 .text:GPIOPinTypeWakeHigh
                0x000000000000d274       0x14 ../ccs/Debug/driverlib.lib(gpio.obj)
                0x000000000000d274                GPIOPinTypeWakeHigh

.text:GPIOPinTypeUSBDigital
                0x000000000000d288       0x12
 .text:GPIOPinTypeUSBDigital
                0x000000000000d288       0x12 ../ccs/Debug/driverlib.lib(gpio.obj)
                0x000000000000d288                GPIOPinTypeUSBDigital

.text:GPIOPinTypeUSBAnalog
                0x000000000000d29a       0x12
 .text:GPIOPinTypeUSBAnalog
                0x000000000000d29a       0x12 ../ccs/Debug/driverlib.lib(gpio.obj)
                0x000000000000d29a                GPIOPinTypeUSBAnalog

.text:GPIOPinTypeUART
                0x000000000000d2ac       0x12
 .text:GPIOPinTypeUART
                0x000000000000d2ac       0x12 ../ccs/Debug/driverlib.lib(gpio.obj)
                0x000000000000d2ac                GPIOPinTypeUART

.text:GPIOPinTypeTrace
                0x000000000000d2be       0x12
 .text:GPIOPinTypeTrace
                0x000000000000d2be       0x12 ../ccs/Debug/driverlib.lib(gpio.obj)
                0x000000000000d2be                GPIOPinTypeTrace

.text:GPIOPinTypeTimer
                0x000000000000d2d0       0x12
 .text:GPIOPinTypeTimer
                0x000000000000d2d0       0x12 ../ccs/Debug/driverlib.lib(gpio.obj)
                0x000000000000d2d0                GPIOPinTypeTimer

.text:GPIOPinTypeSSI
                0x000000000000d2e2       0x12
 .text:GPIOPinTypeSSI
                0x000000000000d2e2       0x12 ../ccs/Debug/driverlib.lib(gpio.obj)
                0x000000000000d2e2                GPIOPinTypeSSI

.text:GPIOPinTypeQEI
                0x000000000000d2f4       0x12
 .text:GPIOPinTypeQEI
                0x000000000000d2f4       0x12 ../ccs/Debug/driverlib.lib(gpio.obj)
                0x000000000000d2f4                GPIOPinTypeQEI

.text:GPIOPinTypePWM
                0x000000000000d306       0x12
 .text:GPIOPinTypePWM
                0x000000000000d306       0x12 ../ccs/Debug/driverlib.lib(gpio.obj)
                0x000000000000d306                GPIOPinTypePWM

.text:GPIOPinTypeOneWire
                0x000000000000d318       0x12
 .text:GPIOPinTypeOneWire
                0x000000000000d318       0x12 ../ccs/Debug/driverlib.lib(gpio.obj)
                0x000000000000d318                GPIOPinTypeOneWire

.text:GPIOPinTypeLCD
                0x000000000000d32a       0x12
 .text:GPIOPinTypeLCD
                0x000000000000d32a       0x12 ../ccs/Debug/driverlib.lib(gpio.obj)
                0x000000000000d32a                GPIOPinTypeLCD

.text:GPIOPinTypeI2CSCL
                0x000000000000d33c       0x12
 .text:GPIOPinTypeI2CSCL
                0x000000000000d33c       0x12 ../ccs/Debug/driverlib.lib(gpio.obj)
                0x000000000000d33c                GPIOPinTypeI2CSCL

.text:GPIOPinTypeI2C
                0x000000000000d34e       0x12
 .text:GPIOPinTypeI2C
                0x000000000000d34e       0x12 ../ccs/Debug/driverlib.lib(gpio.obj)
                0x000000000000d34e                GPIOPinTypeI2C

.text:GPIOPinTypeHibernateRTCCLK
                0x000000000000d360       0x12
 .text:GPIOPinTypeHibernateRTCCLK
                0x000000000000d360       0x12 ../ccs/Debug/driverlib.lib(gpio.obj)
                0x000000000000d360                GPIOPinTypeHibernateRTCCLK

.text:GPIOPinTypeGPIOOutputOD
                0x000000000000d372       0x18
 .text:GPIOPinTypeGPIOOutputOD
                0x000000000000d372       0x18 ../ccs/Debug/driverlib.lib(gpio.obj)
                0x000000000000d372                GPIOPinTypeGPIOOutputOD

.text:GPIOPinTypeGPIOOutput
                0x000000000000d38a       0x18
 .text:GPIOPinTypeGPIOOutput
                0x000000000000d38a       0x18 ../ccs/Debug/driverlib.lib(gpio.obj)
                0x000000000000d38a                GPIOPinTypeGPIOOutput

.text:GPIOPinTypeGPIOInput
                0x000000000000d3a2       0x12
 .text:GPIOPinTypeGPIOInput
                0x000000000000d3a2       0x12 ../ccs/Debug/driverlib.lib(gpio.obj)
                0x000000000000d3a2                GPIOPinTypeGPIOInput

.text:GPIOPinTypeEthernetMII
                0x000000000000d3b4       0x12
 .text:GPIOPinTypeEthernetMII
                0x000000000000d3b4       0x12 ../ccs/Debug/driverlib.lib(gpio.obj)
                0x000000000000d3b4                GPIOPinTypeEthernetMII

.text:GPIOPinTypeEthernetLED
                0x000000000000d3c6       0x12
 .text:GPIOPinTypeEthernetLED
                0x000000000000d3c6       0x12 ../ccs/Debug/driverlib.lib(gpio.obj)
                0x000000000000d3c6                GPIOPinTypeEthernetLED

.text:GPIOPinTypeEPI
                0x000000000000d3d8       0x12
 .text:GPIOPinTypeEPI
                0x000000000000d3d8       0x12 ../ccs/Debug/driverlib.lib(gpio.obj)
                0x000000000000d3d8                GPIOPinTypeEPI

.text:GPIOPinTypeDIVSCLK
                0x000000000000d3ea       0x12
 .text:GPIOPinTypeDIVSCLK
                0x000000000000d3ea       0x12 ../ccs/Debug/driverlib.lib(gpio.obj)
                0x000000000000d3ea                GPIOPinTypeDIVSCLK

.text:GPIOPinTypeComparatorOutput
                0x000000000000d3fc       0x12
 .text:GPIOPinTypeComparatorOutput
                0x000000000000d3fc       0x12 ../ccs/Debug/driverlib.lib(gpio.obj)
                0x000000000000d3fc                GPIOPinTypeComparatorOutput

.text:GPIOPinTypeComparator
                0x000000000000d40e       0x12
 .text:GPIOPinTypeComparator
                0x000000000000d40e       0x12 ../ccs/Debug/driverlib.lib(gpio.obj)
                0x000000000000d40e                GPIOPinTypeComparator

.text:GPIOPinTypeCAN
                0x000000000000d420       0x12
 .text:GPIOPinTypeCAN
                0x000000000000d420       0x12 ../ccs/Debug/driverlib.lib(gpio.obj)
                0x000000000000d420                GPIOPinTypeCAN

.text:GPIOPinTypeADC
                0x000000000000d432       0x12
 .text:GPIOPinTypeADC
                0x000000000000d432       0x12 ../ccs/Debug/driverlib.lib(gpio.obj)
                0x000000000000d432                GPIOPinTypeADC

.text:GPIOPinRead
                0x000000000000d444        0x6
 .text:GPIOPinRead
                0x000000000000d444        0x6 ../ccs/Debug/driverlib.lib(gpio.obj)
                0x000000000000d444                GPIOPinRead

.text:GPIOPinConfigure
                0x000000000000d44c       0x48
 .text:GPIOPinConfigure
                0x000000000000d44c       0x48 ../ccs/Debug/driverlib.lib(gpio.obj)
                0x000000000000d44c                GPIOPinConfigure

.text:GPIOPadConfigGet
                0x000000000000d494       0xa4
 .text:GPIOPadConfigGet
                0x000000000000d494       0xa4 ../ccs/Debug/driverlib.lib(gpio.obj)
                0x000000000000d494                GPIOPadConfigGet

.text:_GPIOIntNumberGet
                0x000000000000d538       0x44
 .text:_GPIOIntNumberGet
                0x000000000000d538       0x44 ../ccs/Debug/driverlib.lib(gpio.obj)

.text:GPIOIntUnregisterPin
                0x000000000000d57c       0x18
 .text:GPIOIntUnregisterPin
                0x000000000000d57c       0x18 ../ccs/Debug/driverlib.lib(gpio.obj)
                0x000000000000d57c                GPIOIntUnregisterPin

.text:GPIOIntUnregister
                0x000000000000d594       0x14
 .text:GPIOIntUnregister
                0x000000000000d594       0x14 ../ccs/Debug/driverlib.lib(gpio.obj)
                0x000000000000d594                GPIOIntUnregister

.text:GPIOIntTypeSet
                0x000000000000d5a8       0x56
 .text:GPIOIntTypeSet
                0x000000000000d5a8       0x56 ../ccs/Debug/driverlib.lib(gpio.obj)
                0x000000000000d5a8                GPIOIntTypeSet

.text:GPIOIntTypeGet
                0x000000000000d5fe       0x42
 .text:GPIOIntTypeGet
                0x000000000000d5fe       0x42 ../ccs/Debug/driverlib.lib(gpio.obj)
                0x000000000000d5fe                GPIOIntTypeGet

.text:GPIOIntStatus
                0x000000000000d640        0xe
 .text:GPIOIntStatus
                0x000000000000d640        0xe ../ccs/Debug/driverlib.lib(gpio.obj)
                0x000000000000d640                GPIOIntStatus

.text:GPIOIntRegisterPin
                0x000000000000d64e       0x1c
 .text:GPIOIntRegisterPin
                0x000000000000d64e       0x1c ../ccs/Debug/driverlib.lib(gpio.obj)
                0x000000000000d64e                GPIOIntRegisterPin

.text:GPIOIntRegister
                0x000000000000d66a       0x18
 .text:GPIOIntRegister
                0x000000000000d66a       0x18 ../ccs/Debug/driverlib.lib(gpio.obj)
                0x000000000000d66a                GPIOIntRegister

.text:GPIOIntEnable
                0x000000000000d682        0xc
 .text:GPIOIntEnable
                0x000000000000d682        0xc ../ccs/Debug/driverlib.lib(gpio.obj)
                0x000000000000d682                GPIOIntEnable

.text:GPIOIntDisable
                0x000000000000d68e        0xe
 .text:GPIOIntDisable
                0x000000000000d68e        0xe ../ccs/Debug/driverlib.lib(gpio.obj)
                0x000000000000d68e                GPIOIntDisable

.text:GPIOIntClear
                0x000000000000d69c        0x6
 .text:GPIOIntClear
                0x000000000000d69c        0x6 ../ccs/Debug/driverlib.lib(gpio.obj)
                0x000000000000d69c                GPIOIntClear

.text:GPIODirModeGet
                0x000000000000d6a2       0x26
 .text:GPIODirModeGet
                0x000000000000d6a2       0x26 ../ccs/Debug/driverlib.lib(gpio.obj)
                0x000000000000d6a2                GPIODirModeGet

.text:GPIODMATriggerEnable
                0x000000000000d6c8        0xc
 .text:GPIODMATriggerEnable
                0x000000000000d6c8        0xc ../ccs/Debug/driverlib.lib(gpio.obj)
                0x000000000000d6c8                GPIODMATriggerEnable

.text:GPIODMATriggerDisable
                0x000000000000d6d4        0xe
 .text:GPIODMATriggerDisable
                0x000000000000d6d4        0xe ../ccs/Debug/driverlib.lib(gpio.obj)
                0x000000000000d6d4                GPIODMATriggerDisable

.text:GPIOADCTriggerEnable
                0x000000000000d6e2        0xc
 .text:GPIOADCTriggerEnable
                0x000000000000d6e2        0xc ../ccs/Debug/driverlib.lib(gpio.obj)
                0x000000000000d6e2                GPIOADCTriggerEnable

.text:GPIOADCTriggerDisable
                0x000000000000d6ee        0xe
 .text:GPIOADCTriggerDisable
                0x000000000000d6ee        0xe ../ccs/Debug/driverlib.lib(gpio.obj)
                0x000000000000d6ee                GPIOADCTriggerDisable

.text:I2CTxFIFOFlush
                0x000000000000d6fc        0xe
 .text:I2CTxFIFOFlush
                0x000000000000d6fc        0xe ../ccs/Debug/driverlib.lib(i2c.obj)
                0x000000000000d6fc                I2CTxFIFOFlush

.text:I2CTxFIFOConfigSet
                0x000000000000d70a       0x18
 .text:I2CTxFIFOConfigSet
                0x000000000000d70a       0x18 ../ccs/Debug/driverlib.lib(i2c.obj)
                0x000000000000d70a                I2CTxFIFOConfigSet

.text:I2CSlaveStatus
                0x000000000000d722        0x6
 .text:I2CSlaveStatus
                0x000000000000d722        0x6 ../ccs/Debug/driverlib.lib(i2c.obj)
                0x000000000000d722                I2CSlaveStatus

.text:I2CSlaveIntStatusEx
                0x000000000000d728        0xe
 .text:I2CSlaveIntStatusEx
                0x000000000000d728        0xe ../ccs/Debug/driverlib.lib(i2c.obj)
                0x000000000000d728                I2CSlaveIntStatusEx

.text:I2CSlaveIntStatus
                0x000000000000d736       0x16
 .text:I2CSlaveIntStatus
                0x000000000000d736       0x16 ../ccs/Debug/driverlib.lib(i2c.obj)
                0x000000000000d736                I2CSlaveIntStatus

.text:I2CSlaveIntEnableEx
                0x000000000000d74c        0xc
 .text:I2CSlaveIntEnableEx
                0x000000000000d74c        0xc ../ccs/Debug/driverlib.lib(i2c.obj)
                0x000000000000d74c                I2CSlaveIntEnableEx

.text:I2CSlaveIntEnable
                0x000000000000d758        0xe
 .text:I2CSlaveIntEnable
                0x000000000000d758        0xe ../ccs/Debug/driverlib.lib(i2c.obj)
                0x000000000000d758                I2CSlaveIntEnable

.text:I2CSlaveIntDisableEx
                0x000000000000d766        0xe
 .text:I2CSlaveIntDisableEx
                0x000000000000d766        0xe ../ccs/Debug/driverlib.lib(i2c.obj)
                0x000000000000d766                I2CSlaveIntDisableEx

.text:I2CSlaveIntDisable
                0x000000000000d774        0xe
 .text:I2CSlaveIntDisable
                0x000000000000d774        0xe ../ccs/Debug/driverlib.lib(i2c.obj)
                0x000000000000d774                I2CSlaveIntDisable

.text:I2CSlaveIntClearEx
                0x000000000000d782        0x6
 .text:I2CSlaveIntClearEx
                0x000000000000d782        0x6 ../ccs/Debug/driverlib.lib(i2c.obj)
                0x000000000000d782                I2CSlaveIntClearEx

.text:I2CSlaveIntClear
                0x000000000000d788        0x8
 .text:I2CSlaveIntClear
                0x000000000000d788        0x8 ../ccs/Debug/driverlib.lib(i2c.obj)
                0x000000000000d788                I2CSlaveIntClear

.text:I2CSlaveEnable
                0x000000000000d790       0x10
 .text:I2CSlaveEnable
                0x000000000000d790       0x10 ../ccs/Debug/driverlib.lib(i2c.obj)
                0x000000000000d790                I2CSlaveEnable

.text:I2CSlaveInit
                0x000000000000d7a0        0xe
 .text:I2CSlaveInit
                0x000000000000d7a0        0xe ../ccs/Debug/driverlib.lib(i2c.obj)
                0x000000000000d7a0                I2CSlaveInit

.text:I2CSlaveFIFOEnable
                0x000000000000d7ae        0xa
 .text:I2CSlaveFIFOEnable
                0x000000000000d7ae        0xa ../ccs/Debug/driverlib.lib(i2c.obj)
                0x000000000000d7ae                I2CSlaveFIFOEnable

.text:I2CSlaveFIFODisable
                0x000000000000d7b8        0x8
 .text:I2CSlaveFIFODisable
                0x000000000000d7b8        0x8 ../ccs/Debug/driverlib.lib(i2c.obj)
                0x000000000000d7b8                I2CSlaveFIFODisable

.text:I2CSlaveDisable
                0x000000000000d7c0       0x10
 .text:I2CSlaveDisable
                0x000000000000d7c0       0x10 ../ccs/Debug/driverlib.lib(i2c.obj)
                0x000000000000d7c0                I2CSlaveDisable

.text:I2CSlaveDataPut
                0x000000000000d7d0        0x6
 .text:I2CSlaveDataPut
                0x000000000000d7d0        0x6 ../ccs/Debug/driverlib.lib(i2c.obj)
                0x000000000000d7d0                I2CSlaveDataPut

.text:I2CSlaveDataGet
                0x000000000000d7d6        0x6
 .text:I2CSlaveDataGet
                0x000000000000d7d6        0x6 ../ccs/Debug/driverlib.lib(i2c.obj)
                0x000000000000d7d6                I2CSlaveDataGet

.text:I2CSlaveAddressSet
                0x000000000000d7dc       0x16
 .text:I2CSlaveAddressSet
                0x000000000000d7dc       0x16 ../ccs/Debug/driverlib.lib(i2c.obj)
                0x000000000000d7dc                I2CSlaveAddressSet

.text:I2CSlaveACKValueSet
                0x000000000000d7f2       0x1a
 .text:I2CSlaveACKValueSet
                0x000000000000d7f2       0x1a ../ccs/Debug/driverlib.lib(i2c.obj)
                0x000000000000d7f2                I2CSlaveACKValueSet

.text:I2CSlaveACKOverride
                0x000000000000d80c       0x1a
 .text:I2CSlaveACKOverride
                0x000000000000d80c       0x1a ../ccs/Debug/driverlib.lib(i2c.obj)
                0x000000000000d80c                I2CSlaveACKOverride

.text:I2CRxFIFOFlush
                0x000000000000d826        0xe
 .text:I2CRxFIFOFlush
                0x000000000000d826        0xe ../ccs/Debug/driverlib.lib(i2c.obj)
                0x000000000000d826                I2CRxFIFOFlush

.text:I2CRxFIFOConfigSet
                0x000000000000d834       0x18
 .text:I2CRxFIFOConfigSet
                0x000000000000d834       0x18 ../ccs/Debug/driverlib.lib(i2c.obj)
                0x000000000000d834                I2CRxFIFOConfigSet

.text:I2CMasterTimeoutSet
                0x000000000000d84c        0x4
 .text:I2CMasterTimeoutSet
                0x000000000000d84c        0x4 ../ccs/Debug/driverlib.lib(i2c.obj)
                0x000000000000d84c                I2CMasterTimeoutSet

.text:I2CMasterSlaveAddrSet
                0x000000000000d850        0x8
 .text:I2CMasterSlaveAddrSet
                0x000000000000d850        0x8 ../ccs/Debug/driverlib.lib(i2c.obj)
                0x000000000000d850                I2CMasterSlaveAddrSet

.text:I2CMasterLineStateGet
                0x000000000000d858        0x4
 .text:I2CMasterLineStateGet
                0x000000000000d858        0x4 ../ccs/Debug/driverlib.lib(i2c.obj)
                0x000000000000d858                I2CMasterLineStateGet

.text:I2CMasterIntStatusEx
                0x000000000000d85c        0xa
 .text:I2CMasterIntStatusEx
                0x000000000000d85c        0xa ../ccs/Debug/driverlib.lib(i2c.obj)
                0x000000000000d85c                I2CMasterIntStatusEx

.text:I2CMasterIntStatus
                0x000000000000d866       0x12
 .text:I2CMasterIntStatus
                0x000000000000d866       0x12 ../ccs/Debug/driverlib.lib(i2c.obj)
                0x000000000000d866                I2CMasterIntStatus

.text:I2CMasterIntEnableEx
                0x000000000000d878        0x8
 .text:I2CMasterIntEnableEx
                0x000000000000d878        0x8 ../ccs/Debug/driverlib.lib(i2c.obj)
                0x000000000000d878                I2CMasterIntEnableEx

.text:I2CMasterIntEnable
                0x000000000000d880        0x6
 .text:I2CMasterIntEnable
                0x000000000000d880        0x6 ../ccs/Debug/driverlib.lib(i2c.obj)
                0x000000000000d880                I2CMasterIntEnable

.text:I2CMasterIntDisableEx
                0x000000000000d886        0xa
 .text:I2CMasterIntDisableEx
                0x000000000000d886        0xa ../ccs/Debug/driverlib.lib(i2c.obj)
                0x000000000000d886                I2CMasterIntDisableEx

.text:I2CMasterIntDisable
                0x000000000000d890        0x6
 .text:I2CMasterIntDisable
                0x000000000000d890        0x6 ../ccs/Debug/driverlib.lib(i2c.obj)
                0x000000000000d890                I2CMasterIntDisable

.text:I2CMasterIntClearEx
                0x000000000000d896        0x4
 .text:I2CMasterIntClearEx
                0x000000000000d896        0x4 ../ccs/Debug/driverlib.lib(i2c.obj)
                0x000000000000d896                I2CMasterIntClearEx

.text:I2CMasterIntClear
                0x000000000000d89a        0x8
 .text:I2CMasterIntClear
                0x000000000000d89a        0x8 ../ccs/Debug/driverlib.lib(i2c.obj)
                0x000000000000d89a                I2CMasterIntClear

.text:I2CMasterEnable
                0x000000000000d8a2        0xa
 .text:I2CMasterEnable
                0x000000000000d8a2        0xa ../ccs/Debug/driverlib.lib(i2c.obj)
                0x000000000000d8a2                I2CMasterEnable

.text:I2CMasterInitExpClk
                0x000000000000d8ac       0x4c
 .text:I2CMasterInitExpClk
                0x000000000000d8ac       0x4c ../ccs/Debug/driverlib.lib(i2c.obj)
                0x000000000000d8ac                I2CMasterInitExpClk

.text:I2CMasterGlitchFilterConfigSet
                0x000000000000d8f8       0x44
 .text:I2CMasterGlitchFilterConfigSet
                0x000000000000d8f8       0x44 ../ccs/Debug/driverlib.lib(i2c.obj)
                0x000000000000d8f8                I2CMasterGlitchFilterConfigSet

.text:I2CMasterErr
                0x000000000000d93c       0x16
 .text:I2CMasterErr
                0x000000000000d93c       0x16 ../ccs/Debug/driverlib.lib(i2c.obj)
                0x000000000000d93c                I2CMasterErr

.text:I2CMasterDisable
                0x000000000000d952        0xa
 .text:I2CMasterDisable
                0x000000000000d952        0xa ../ccs/Debug/driverlib.lib(i2c.obj)
                0x000000000000d952                I2CMasterDisable

.text:I2CMasterDataPut
                0x000000000000d95c        0x4
 .text:I2CMasterDataPut
                0x000000000000d95c        0x4 ../ccs/Debug/driverlib.lib(i2c.obj)
                0x000000000000d95c                I2CMasterDataPut

.text:I2CMasterDataGet
                0x000000000000d960        0x4
 .text:I2CMasterDataGet
                0x000000000000d960        0x4 ../ccs/Debug/driverlib.lib(i2c.obj)
                0x000000000000d960                I2CMasterDataGet

.text:I2CMasterControl
                0x000000000000d964        0x4
 .text:I2CMasterControl
                0x000000000000d964        0x4 ../ccs/Debug/driverlib.lib(i2c.obj)
                0x000000000000d964                I2CMasterControl

.text:I2CMasterBusy
                0x000000000000d968        0x8
 .text:I2CMasterBusy
                0x000000000000d968        0x8 ../ccs/Debug/driverlib.lib(i2c.obj)
                0x000000000000d968                I2CMasterBusy

.text:I2CMasterBusBusy
                0x000000000000d970        0x8
 .text:I2CMasterBusBusy
                0x000000000000d970        0x8 ../ccs/Debug/driverlib.lib(i2c.obj)
                0x000000000000d970                I2CMasterBusBusy

.text:I2CMasterBurstLengthSet
                0x000000000000d978        0x4
 .text:I2CMasterBurstLengthSet
                0x000000000000d978        0x4 ../ccs/Debug/driverlib.lib(i2c.obj)
                0x000000000000d978                I2CMasterBurstLengthSet

.text:I2CMasterBurstCountGet
                0x000000000000d97c        0x4
 .text:I2CMasterBurstCountGet
                0x000000000000d97c        0x4 ../ccs/Debug/driverlib.lib(i2c.obj)
                0x000000000000d97c                I2CMasterBurstCountGet

.text:I2CLoopbackEnable
                0x000000000000d980        0xa
 .text:I2CLoopbackEnable
                0x000000000000d980        0xa ../ccs/Debug/driverlib.lib(i2c.obj)
                0x000000000000d980                I2CLoopbackEnable

.text:_I2CIntNumberGet
                0x000000000000d98c       0x40
 .text:_I2CIntNumberGet
                0x000000000000d98c       0x40 ../ccs/Debug/driverlib.lib(i2c.obj)

.text:I2CIntUnregister
                0x000000000000d9cc       0x14
 .text:I2CIntUnregister
                0x000000000000d9cc       0x14 ../ccs/Debug/driverlib.lib(i2c.obj)
                0x000000000000d9cc                I2CIntUnregister

.text:I2CIntRegister
                0x000000000000d9e0       0x18
 .text:I2CIntRegister
                0x000000000000d9e0       0x18 ../ccs/Debug/driverlib.lib(i2c.obj)
                0x000000000000d9e0                I2CIntRegister

.text:I2CFIFOStatus
                0x000000000000d9f8        0x6
 .text:I2CFIFOStatus
                0x000000000000d9f8        0x6 ../ccs/Debug/driverlib.lib(i2c.obj)
                0x000000000000d9f8                I2CFIFOStatus

.text:I2CFIFODataPutNonBlocking
                0x000000000000d9fe       0x12
 .text:I2CFIFODataPutNonBlocking
                0x000000000000d9fe       0x12 ../ccs/Debug/driverlib.lib(i2c.obj)
                0x000000000000d9fe                I2CFIFODataPutNonBlocking

.text:I2CFIFODataPut
                0x000000000000da10        0xe
 .text:I2CFIFODataPut
                0x000000000000da10        0xe ../ccs/Debug/driverlib.lib(i2c.obj)
                0x000000000000da10                I2CFIFODataPut

.text:I2CFIFODataGetNonBlocking
                0x000000000000da1e       0x16
 .text:I2CFIFODataGetNonBlocking
                0x000000000000da1e       0x16 ../ccs/Debug/driverlib.lib(i2c.obj)
                0x000000000000da1e                I2CFIFODataGetNonBlocking

.text:I2CFIFODataGet
                0x000000000000da34        0xe
 .text:I2CFIFODataGet
                0x000000000000da34        0xe ../ccs/Debug/driverlib.lib(i2c.obj)
                0x000000000000da34                I2CFIFODataGet

.text:_IntDefaultHandler
                0x000000000000da42        0x2
 .text:_IntDefaultHandler
                0x000000000000da42        0x2 ../ccs/Debug/driverlib.lib(interrupt.obj)

.text:IntUnregister
                0x000000000000da44       0x14
 .text:IntUnregister
                0x000000000000da44       0x14 ../ccs/Debug/driverlib.lib(interrupt.obj)
                0x000000000000da44                IntUnregister

.text:IntTrigger
                0x000000000000da58        0xc
 .text:IntTrigger
                0x000000000000da58        0xc ../ccs/Debug/driverlib.lib(interrupt.obj)
                0x000000000000da58                IntTrigger

.text:IntRegister
                0x000000000000da64       0x34
 .text:IntRegister
                0x000000000000da64       0x34 ../ccs/Debug/driverlib.lib(interrupt.obj)
                0x000000000000da64                IntRegister

.text:IntPrioritySet
                0x000000000000da98       0x24
 .text:IntPrioritySet
                0x000000000000da98       0x24 ../ccs/Debug/driverlib.lib(interrupt.obj)
                0x000000000000da98                IntPrioritySet

.text:IntPriorityMaskSet
                0x000000000000dabc        0x4
 .text:IntPriorityMaskSet
                0x000000000000dabc        0x4 ../ccs/Debug/driverlib.lib(interrupt.obj)
                0x000000000000dabc                IntPriorityMaskSet

.text:IntPriorityMaskGet
                0x000000000000dac0        0x4
 .text:IntPriorityMaskGet
                0x000000000000dac0        0x4 ../ccs/Debug/driverlib.lib(interrupt.obj)
                0x000000000000dac0                IntPriorityMaskGet

.text:IntPriorityGroupingSet
                0x000000000000dac4       0x20
 .text:IntPriorityGroupingSet
                0x000000000000dac4       0x20 ../ccs/Debug/driverlib.lib(interrupt.obj)
                0x000000000000dac4                IntPriorityGroupingSet

.text:IntPriorityGroupingGet
                0x000000000000dae4       0x30
 .text:IntPriorityGroupingGet
                0x000000000000dae4       0x30 ../ccs/Debug/driverlib.lib(interrupt.obj)
                0x000000000000dae4                IntPriorityGroupingGet

.text:IntPriorityGet
                0x000000000000db14       0x20
 .text:IntPriorityGet
                0x000000000000db14       0x20 ../ccs/Debug/driverlib.lib(interrupt.obj)
                0x000000000000db14                IntPriorityGet

.text:IntPendSet
                0x000000000000db34       0x54
 .text:IntPendSet
                0x000000000000db34       0x54 ../ccs/Debug/driverlib.lib(interrupt.obj)
                0x000000000000db34                IntPendSet

.text:IntPendClear
                0x000000000000db88       0x48
 .text:IntPendClear
                0x000000000000db88       0x48 ../ccs/Debug/driverlib.lib(interrupt.obj)
                0x000000000000db88                IntPendClear

.text:IntMasterEnable
                0x000000000000dbd0       0x10
 .text:IntMasterEnable
                0x000000000000dbd0       0x10 ../ccs/Debug/driverlib.lib(interrupt.obj)
                0x000000000000dbd0                IntMasterEnable

.text:IntMasterDisable
                0x000000000000dbe0       0x10
 .text:IntMasterDisable
                0x000000000000dbe0       0x10 ../ccs/Debug/driverlib.lib(interrupt.obj)
                0x000000000000dbe0                IntMasterDisable

.text:IntIsEnabled
                0x000000000000dbf0       0x64
 .text:IntIsEnabled
                0x000000000000dbf0       0x64 ../ccs/Debug/driverlib.lib(interrupt.obj)
                0x000000000000dbf0                IntIsEnabled

.text:IntEnable
                0x000000000000dc54       0x68
 .text:IntEnable
                0x000000000000dc54       0x68 ../ccs/Debug/driverlib.lib(interrupt.obj)
                0x000000000000dc54                IntEnable

.text:IntDisable
                0x000000000000dcbc       0x68
 .text:IntDisable
                0x000000000000dcbc       0x68 ../ccs/Debug/driverlib.lib(interrupt.obj)
                0x000000000000dcbc                IntDisable

.text:SysCtlDelay
                0x000000000000dd24        0x6
 .text:SysCtlDelay
                0x000000000000dd24        0x6 ../ccs/Debug/driverlib.lib(sysctl.obj)
                0x000000000000dd24                SysCtlDelay

.text:SysCtlVoltageEventStatus
                0x000000000000dd2c        0xc
 .text:SysCtlVoltageEventStatus
                0x000000000000dd2c        0xc ../ccs/Debug/driverlib.lib(sysctl.obj)
                0x000000000000dd2c                SysCtlVoltageEventStatus

.text:SysCtlVoltageEventConfig
                0x000000000000dd38        0xc
 .text:SysCtlVoltageEventConfig
                0x000000000000dd38        0xc ../ccs/Debug/driverlib.lib(sysctl.obj)
                0x000000000000dd38                SysCtlVoltageEventConfig

.text:SysCtlVoltageEventClear
                0x000000000000dd44       0x10
 .text:SysCtlVoltageEventClear
                0x000000000000dd44       0x10 ../ccs/Debug/driverlib.lib(sysctl.obj)
                0x000000000000dd44                SysCtlVoltageEventClear

.text:SysCtlVCOGet
                0x000000000000dd54       0x70
 .text:SysCtlVCOGet
                0x000000000000dd54       0x70 ../ccs/Debug/driverlib.lib(sysctl.obj)
                0x000000000000dd54                SysCtlVCOGet

.text:SysCtlUSBPLLEnable
                0x000000000000ddc4       0x14
 .text:SysCtlUSBPLLEnable
                0x000000000000ddc4       0x14 ../ccs/Debug/driverlib.lib(sysctl.obj)
                0x000000000000ddc4                SysCtlUSBPLLEnable

.text:SysCtlUSBPLLDisable
                0x000000000000ddd8       0x14
 .text:SysCtlUSBPLLDisable
                0x000000000000ddd8       0x14 ../ccs/Debug/driverlib.lib(sysctl.obj)
                0x000000000000ddd8                SysCtlUSBPLLDisable

.text:SysCtlSleepPowerSet
                0x000000000000ddec        0xc
 .text:SysCtlSleepPowerSet
                0x000000000000ddec        0xc ../ccs/Debug/driverlib.lib(sysctl.obj)
                0x000000000000ddec                SysCtlSleepPowerSet

.text:SysCtlSleep
                0x000000000000ddf8        0x4
 .text:SysCtlSleep
                0x000000000000ddf8        0x4 ../ccs/Debug/driverlib.lib(sysctl.obj)
                0x000000000000ddf8                SysCtlSleep

.text:SysCtlSRAMSizeGet
                0x000000000000ddfc       0x14
 .text:SysCtlSRAMSizeGet
                0x000000000000ddfc       0x14 ../ccs/Debug/driverlib.lib(sysctl.obj)
                0x000000000000ddfc                SysCtlSRAMSizeGet

.text:SysCtlResetCauseGet
                0x000000000000de10        0xc
 .text:SysCtlResetCauseGet
                0x000000000000de10        0xc ../ccs/Debug/driverlib.lib(sysctl.obj)
                0x000000000000de10                SysCtlResetCauseGet

.text:SysCtlResetCauseClear
                0x000000000000de1c       0x14
 .text:SysCtlResetCauseClear
                0x000000000000de1c       0x14 ../ccs/Debug/driverlib.lib(sysctl.obj)
                0x000000000000de1c                SysCtlResetCauseClear

.text:SysCtlResetBehaviorSet
                0x000000000000de30        0xc
 .text:SysCtlResetBehaviorSet
                0x000000000000de30        0xc ../ccs/Debug/driverlib.lib(sysctl.obj)
                0x000000000000de30                SysCtlResetBehaviorSet

.text:SysCtlResetBehaviorGet
                0x000000000000de3c        0xc
 .text:SysCtlResetBehaviorGet
                0x000000000000de3c        0xc ../ccs/Debug/driverlib.lib(sysctl.obj)
                0x000000000000de3c                SysCtlResetBehaviorGet

.text:SysCtlReset
                0x000000000000de48       0x10
 .text:SysCtlReset
                0x000000000000de48       0x10 ../ccs/Debug/driverlib.lib(sysctl.obj)
                0x000000000000de48                SysCtlReset

.text:SysCtlPeripheralSleepEnable
                0x000000000000de58       0x34
 .text:SysCtlPeripheralSleepEnable
                0x000000000000de58       0x34 ../ccs/Debug/driverlib.lib(sysctl.obj)
                0x000000000000de58                SysCtlPeripheralSleepEnable

.text:SysCtlPeripheralSleepDisable
                0x000000000000de8c       0x34
 .text:SysCtlPeripheralSleepDisable
                0x000000000000de8c       0x34 ../ccs/Debug/driverlib.lib(sysctl.obj)
                0x000000000000de8c                SysCtlPeripheralSleepDisable

.text:SysCtlPeripheralReset
                0x000000000000dec0       0x50
 .text:SysCtlPeripheralReset
                0x000000000000dec0       0x50 ../ccs/Debug/driverlib.lib(sysctl.obj)
                0x000000000000dec0                SysCtlPeripheralReset

.text:SysCtlPeripheralReady
                0x000000000000df10       0x38
 .text:SysCtlPeripheralReady
                0x000000000000df10       0x38 ../ccs/Debug/driverlib.lib(sysctl.obj)
                0x000000000000df10                SysCtlPeripheralReady

.text:SysCtlPeripheralPresent
                0x000000000000df48       0x38
 .text:SysCtlPeripheralPresent
                0x000000000000df48       0x38 ../ccs/Debug/driverlib.lib(sysctl.obj)
                0x000000000000df48                SysCtlPeripheralPresent

.text:SysCtlPeripheralPowerOn
                0x000000000000df80       0x34
 .text:SysCtlPeripheralPowerOn
                0x000000000000df80       0x34 ../ccs/Debug/driverlib.lib(sysctl.obj)
                0x000000000000df80                SysCtlPeripheralPowerOn

.text:SysCtlPeripheralPowerOff
                0x000000000000dfb4       0x34
 .text:SysCtlPeripheralPowerOff
                0x000000000000dfb4       0x34 ../ccs/Debug/driverlib.lib(sysctl.obj)
                0x000000000000dfb4                SysCtlPeripheralPowerOff

.text:SysCtlPeripheralEnable
                0x000000000000dfe8       0x34
 .text:SysCtlPeripheralEnable
                0x000000000000dfe8       0x34 ../ccs/Debug/driverlib.lib(sysctl.obj)
                0x000000000000dfe8                SysCtlPeripheralEnable

.text:SysCtlPeripheralDisable
                0x000000000000e01c       0x34
 .text:SysCtlPeripheralDisable
                0x000000000000e01c       0x34 ../ccs/Debug/driverlib.lib(sysctl.obj)
                0x000000000000e01c                SysCtlPeripheralDisable

.text:SysCtlPeripheralDeepSleepEnable
                0x000000000000e050       0x34
 .text:SysCtlPeripheralDeepSleepEnable
                0x000000000000e050       0x34 ../ccs/Debug/driverlib.lib(sysctl.obj)
                0x000000000000e050                SysCtlPeripheralDeepSleepEnable

.text:SysCtlPeripheralDeepSleepDisable
                0x000000000000e084       0x34
 .text:SysCtlPeripheralDeepSleepDisable
                0x000000000000e084       0x34 ../ccs/Debug/driverlib.lib(sysctl.obj)
                0x000000000000e084                SysCtlPeripheralDeepSleepDisable

.text:SysCtlPeripheralClockGating
                0x000000000000e0b8       0x48
 .text:SysCtlPeripheralClockGating
                0x000000000000e0b8       0x48 ../ccs/Debug/driverlib.lib(sysctl.obj)
                0x000000000000e0b8                SysCtlPeripheralClockGating

.text:SysCtlPWMClockSet
                0x000000000000e100       0x14
 .text:SysCtlPWMClockSet
                0x000000000000e100       0x14 ../ccs/Debug/driverlib.lib(sysctl.obj)
                0x000000000000e100                SysCtlPWMClockSet

.text:SysCtlPWMClockGet
                0x000000000000e114       0x18
 .text:SysCtlPWMClockGet
                0x000000000000e114       0x18 ../ccs/Debug/driverlib.lib(sysctl.obj)
                0x000000000000e114                SysCtlPWMClockGet

.text:SysCtlPIOSCCalibrate
                0x000000000000e12c       0x40
 .text:SysCtlPIOSCCalibrate
                0x000000000000e12c       0x40 ../ccs/Debug/driverlib.lib(sysctl.obj)
                0x000000000000e12c                SysCtlPIOSCCalibrate

.text:SysCtlNMIStatus
                0x000000000000e16c        0xc
 .text:SysCtlNMIStatus
                0x000000000000e16c        0xc ../ccs/Debug/driverlib.lib(sysctl.obj)
                0x000000000000e16c                SysCtlNMIStatus

.text:SysCtlNMIClear
                0x000000000000e178       0x14
 .text:SysCtlNMIClear
                0x000000000000e178       0x14 ../ccs/Debug/driverlib.lib(sysctl.obj)
                0x000000000000e178                SysCtlNMIClear

.text:SysCtlMOSCConfigSet
                0x000000000000e18c        0xc
 .text:SysCtlMOSCConfigSet
                0x000000000000e18c        0xc ../ccs/Debug/driverlib.lib(sysctl.obj)
                0x000000000000e18c                SysCtlMOSCConfigSet

.text:SysCtlLDOSleepSet
                0x000000000000e198        0xc
 .text:SysCtlLDOSleepSet
                0x000000000000e198        0xc ../ccs/Debug/driverlib.lib(sysctl.obj)
                0x000000000000e198                SysCtlLDOSleepSet

.text:SysCtlLDOSleepGet
                0x000000000000e1a4        0xc
 .text:SysCtlLDOSleepGet
                0x000000000000e1a4        0xc ../ccs/Debug/driverlib.lib(sysctl.obj)
                0x000000000000e1a4                SysCtlLDOSleepGet

.text:SysCtlLDODeepSleepSet
                0x000000000000e1b0        0xc
 .text:SysCtlLDODeepSleepSet
                0x000000000000e1b0        0xc ../ccs/Debug/driverlib.lib(sysctl.obj)
                0x000000000000e1b0                SysCtlLDODeepSleepSet

.text:SysCtlLDODeepSleepGet
                0x000000000000e1bc        0xc
 .text:SysCtlLDODeepSleepGet
                0x000000000000e1bc        0xc ../ccs/Debug/driverlib.lib(sysctl.obj)
                0x000000000000e1bc                SysCtlLDODeepSleepGet

.text:SysCtlIntUnregister
                0x000000000000e1c8       0x10
 .text:SysCtlIntUnregister
                0x000000000000e1c8       0x10 ../ccs/Debug/driverlib.lib(sysctl.obj)
                0x000000000000e1c8                SysCtlIntUnregister

.text:SysCtlIntStatus
                0x000000000000e1d8       0x18
 .text:SysCtlIntStatus
                0x000000000000e1d8       0x18 ../ccs/Debug/driverlib.lib(sysctl.obj)
                0x000000000000e1d8                SysCtlIntStatus

.text:SysCtlIntRegister
                0x000000000000e1f0       0x12
 .text:SysCtlIntRegister
                0x000000000000e1f0       0x12 ../ccs/Debug/driverlib.lib(sysctl.obj)
                0x000000000000e1f0                SysCtlIntRegister

.text:SysCtlIntEnable
                0x000000000000e204       0x10
 .text:SysCtlIntEnable
                0x000000000000e204       0x10 ../ccs/Debug/driverlib.lib(sysctl.obj)
                0x000000000000e204                SysCtlIntEnable

.text:SysCtlIntDisable
                0x000000000000e214       0x14
 .text:SysCtlIntDisable
                0x000000000000e214       0x14 ../ccs/Debug/driverlib.lib(sysctl.obj)
                0x000000000000e214                SysCtlIntDisable

.text:SysCtlIntClear
                0x000000000000e228        0xc
 .text:SysCtlIntClear
                0x000000000000e228        0xc ../ccs/Debug/driverlib.lib(sysctl.obj)
                0x000000000000e228                SysCtlIntClear

.text:SysCtlGPIOAHBEnable
                0x000000000000e234       0x1c
 .text:SysCtlGPIOAHBEnable
                0x000000000000e234       0x1c ../ccs/Debug/driverlib.lib(sysctl.obj)
                0x000000000000e234                SysCtlGPIOAHBEnable

.text:SysCtlGPIOAHBDisable
                0x000000000000e250       0x1c
 .text:SysCtlGPIOAHBDisable
                0x000000000000e250       0x1c ../ccs/Debug/driverlib.lib(sysctl.obj)
                0x000000000000e250                SysCtlGPIOAHBDisable

.text:SysCtlFlashSizeGet
                0x000000000000e26c       0x34
 .text:SysCtlFlashSizeGet
                0x000000000000e26c       0x34 ../ccs/Debug/driverlib.lib(sysctl.obj)
                0x000000000000e26c                SysCtlFlashSizeGet

.text:SysCtlFlashSectorSizeGet
                0x000000000000e2a0       0x34
 .text:SysCtlFlashSectorSizeGet
                0x000000000000e2a0       0x34 ../ccs/Debug/driverlib.lib(sysctl.obj)
                0x000000000000e2a0                SysCtlFlashSectorSizeGet

.text:SysCtlDeepSleepPowerSet
                0x000000000000e2d4        0xc
 .text:SysCtlDeepSleepPowerSet
                0x000000000000e2d4        0xc ../ccs/Debug/driverlib.lib(sysctl.obj)
                0x000000000000e2d4                SysCtlDeepSleepPowerSet

.text:SysCtlDeepSleepClockSet
                0x000000000000e2e0        0xc
 .text:SysCtlDeepSleepClockSet
                0x000000000000e2e0        0xc ../ccs/Debug/driverlib.lib(sysctl.obj)
                0x000000000000e2e0                SysCtlDeepSleepClockSet

.text:SysCtlDeepSleepClockConfigSet
                0x000000000000e2ec       0x64
 .text:SysCtlDeepSleepClockConfigSet
                0x000000000000e2ec       0x64 ../ccs/Debug/driverlib.lib(sysctl.obj)
                0x000000000000e2ec                SysCtlDeepSleepClockConfigSet

.text:SysCtlDeepSleep
                0x000000000000e350       0x20
 .text:SysCtlDeepSleep
                0x000000000000e350       0x20 ../ccs/Debug/driverlib.lib(sysctl.obj)
                0x000000000000e350                SysCtlDeepSleep

.text:SysCtlClockSet
                0x000000000000e370       0xf4
 .text:SysCtlClockSet
                0x000000000000e370       0xf4 ../ccs/Debug/driverlib.lib(sysctl.obj)
                0x000000000000e370                SysCtlClockSet

.text:SysCtlClockOutConfig
                0x000000000000e464       0x14
 .text:SysCtlClockOutConfig
                0x000000000000e464       0x14 ../ccs/Debug/driverlib.lib(sysctl.obj)
                0x000000000000e464                SysCtlClockOutConfig

.text:SysCtlClockGet
                0x000000000000e478      0x110
 .text:SysCtlClockGet
                0x000000000000e478      0x110 ../ccs/Debug/driverlib.lib(sysctl.obj)
                0x000000000000e478                SysCtlClockGet

.text:_SysCtlMemTimingGet
                0x000000000000e588       0x20
 .text:_SysCtlMemTimingGet
                0x000000000000e588       0x20 ../ccs/Debug/driverlib.lib(sysctl.obj)

.text:_SysCtlFrequencyGet
                0x000000000000e5a8       0x48
 .text:_SysCtlFrequencyGet
                0x000000000000e5a8       0x48 ../ccs/Debug/driverlib.lib(sysctl.obj)

.text:SysCtlClockFreqSet
                0x000000000000e5f0      0x200
 .text:SysCtlClockFreqSet
                0x000000000000e5f0      0x200 ../ccs/Debug/driverlib.lib(sysctl.obj)
                0x000000000000e5f0                SysCtlClockFreqSet

.text:SysCtlAltClkConfig
                0x000000000000e7f0        0xc
 .text:SysCtlAltClkConfig
                0x000000000000e7f0        0xc ../ccs/Debug/driverlib.lib(sysctl.obj)
                0x000000000000e7f0                SysCtlAltClkConfig

.text:CPUwfi    0x000000000000e7fc        0x4
 .text:CPUwfi   0x000000000000e7fc        0x4 ../ccs/Debug/driverlib.lib(cpu.obj)
                0x000000000000e7fc                CPUwfi

.text:CPUprimask
                0x000000000000e800        0xa
 .text:CPUprimask
                0x000000000000e800        0xa ../ccs/Debug/driverlib.lib(cpu.obj)
                0x000000000000e800                CPUprimask

.text:CPUcpsie  0x000000000000e80a        0xc
 .text:CPUcpsie
                0x000000000000e80a        0xc ../ccs/Debug/driverlib.lib(cpu.obj)
                0x000000000000e80a                CPUcpsie

.text:CPUcpsid  0x000000000000e816        0xc
 .text:CPUcpsid
                0x000000000000e816        0xc ../ccs/Debug/driverlib.lib(cpu.obj)
                0x000000000000e816                CPUcpsid

.text:CPUbasepriSet
                0x000000000000e822        0x6
 .text:CPUbasepriSet
                0x000000000000e822        0x6 ../ccs/Debug/driverlib.lib(cpu.obj)
                0x000000000000e822                CPUbasepriSet

.text:CPUbasepriGet
                0x000000000000e828        0xa
 .text:CPUbasepriGet
                0x000000000000e828        0xa ../ccs/Debug/driverlib.lib(cpu.obj)
                0x000000000000e828                CPUbasepriGet

.rodata         0x000000000000e838      0x50c
 *(.rodata)
 .rodata        0x000000000000e838       0x93 ./main.o
 *(.rodata*)
 *fill*         0x000000000000e8cb        0x1 
 .rodata._global_impure_ptr
                0x000000000000e8cc        0x4 /home/tech/ti/ccsv7/tools/compiler/gcc-arm-none-eabi-6-2017-q1-update/bin/../lib/gcc/arm-none-eabi/6.3.1/../../../../arm-none-eabi/lib/thumb/v7e-m/fpv4-sp/hard/libc.a(lib_a-impure.o)
                0x000000000000e8cc                _global_impure_ptr
 .rodata._strtod_l.str1.4
                0x000000000000e8d0        0xf /home/tech/ti/ccsv7/tools/compiler/gcc-arm-none-eabi-6-2017-q1-update/bin/../lib/gcc/arm-none-eabi/6.3.1/../../../../arm-none-eabi/lib/thumb/v7e-m/fpv4-sp/hard/libc.a(lib_a-strtod.o)
 *fill*         0x000000000000e8df        0x1 
 .rodata.fpi.7269
                0x000000000000e8e0       0x14 /home/tech/ti/ccsv7/tools/compiler/gcc-arm-none-eabi-6-2017-q1-update/bin/../lib/gcc/arm-none-eabi/6.3.1/../../../../arm-none-eabi/lib/thumb/v7e-m/fpv4-sp/hard/libc.a(lib_a-strtod.o)
 .rodata.fpinan.7305
                0x000000000000e8f4       0x14 /home/tech/ti/ccsv7/tools/compiler/gcc-arm-none-eabi-6-2017-q1-update/bin/../lib/gcc/arm-none-eabi/6.3.1/../../../../arm-none-eabi/lib/thumb/v7e-m/fpv4-sp/hard/libc.a(lib_a-strtod.o)
 .rodata.tinytens
                0x000000000000e908       0x28 /home/tech/ti/ccsv7/tools/compiler/gcc-arm-none-eabi-6-2017-q1-update/bin/../lib/gcc/arm-none-eabi/6.3.1/../../../../arm-none-eabi/lib/thumb/v7e-m/fpv4-sp/hard/libc.a(lib_a-strtod.o)
 .rodata._svfprintf_r.str1.4
                0x000000000000e930       0x42 /home/tech/ti/ccsv7/tools/compiler/gcc-arm-none-eabi-6-2017-q1-update/bin/../lib/gcc/arm-none-eabi/6.3.1/../../../../arm-none-eabi/lib/thumb/v7e-m/fpv4-sp/hard/libc.a(lib_a-svfprintf.o)
 *fill*         0x000000000000e972        0x2 
 .rodata.blanks.8351
                0x000000000000e974       0x10 /home/tech/ti/ccsv7/tools/compiler/gcc-arm-none-eabi-6-2017-q1-update/bin/../lib/gcc/arm-none-eabi/6.3.1/../../../../arm-none-eabi/lib/thumb/v7e-m/fpv4-sp/hard/libc.a(lib_a-svfprintf.o)
 .rodata.zeroes.8352
                0x000000000000e984       0x10 /home/tech/ti/ccsv7/tools/compiler/gcc-arm-none-eabi-6-2017-q1-update/bin/../lib/gcc/arm-none-eabi/6.3.1/../../../../arm-none-eabi/lib/thumb/v7e-m/fpv4-sp/hard/libc.a(lib_a-svfprintf.o)
 .rodata._vfprintf_r.str1.4
                0x000000000000e994       0x42 /home/tech/ti/ccsv7/tools/compiler/gcc-arm-none-eabi-6-2017-q1-update/bin/../lib/gcc/arm-none-eabi/6.3.1/../../../../arm-none-eabi/lib/thumb/v7e-m/fpv4-sp/hard/libc.a(lib_a-vfprintf.o)
 .rodata.blanks.8366
                0x000000000000e994       0x10 /home/tech/ti/ccsv7/tools/compiler/gcc-arm-none-eabi-6-2017-q1-update/bin/../lib/gcc/arm-none-eabi/6.3.1/../../../../arm-none-eabi/lib/thumb/v7e-m/fpv4-sp/hard/libc.a(lib_a-vfprintf.o)
 .rodata.zeroes.8367
                0x000000000000e9a4       0x10 /home/tech/ti/ccsv7/tools/compiler/gcc-arm-none-eabi-6-2017-q1-update/bin/../lib/gcc/arm-none-eabi/6.3.1/../../../../arm-none-eabi/lib/thumb/v7e-m/fpv4-sp/hard/libc.a(lib_a-vfprintf.o)
 .rodata._dtoa_r.str1.4
                0x000000000000e9b4       0x10 /home/tech/ti/ccsv7/tools/compiler/gcc-arm-none-eabi-6-2017-q1-update/bin/../lib/gcc/arm-none-eabi/6.3.1/../../../../arm-none-eabi/lib/thumb/v7e-m/fpv4-sp/hard/libc.a(lib_a-dtoa.o)
                                         0x12 (size before relaxing)
 .rodata.__hexdig
                0x000000000000e9c4      0x100 /home/tech/ti/ccsv7/tools/compiler/gcc-arm-none-eabi-6-2017-q1-update/bin/../lib/gcc/arm-none-eabi/6.3.1/../../../../arm-none-eabi/lib/thumb/v7e-m/fpv4-sp/hard/libc.a(lib_a-gdtoa-gethex.o)
                0x000000000000e9c4                __hexdig
 .rodata._setlocale_r.str1.4
                0x000000000000eac4        0xa /home/tech/ti/ccsv7/tools/compiler/gcc-arm-none-eabi-6-2017-q1-update/bin/../lib/gcc/arm-none-eabi/6.3.1/../../../../arm-none-eabi/lib/thumb/v7e-m/fpv4-sp/hard/libc.a(lib_a-locale.o)
                                          0xd (size before relaxing)
 *fill*         0x000000000000eace        0x2 
 .rodata.str1.4
                0x000000000000ead0        0x2 /home/tech/ti/ccsv7/tools/compiler/gcc-arm-none-eabi-6-2017-q1-update/bin/../lib/gcc/arm-none-eabi/6.3.1/../../../../arm-none-eabi/lib/thumb/v7e-m/fpv4-sp/hard/libc.a(lib_a-locale.o)
 *fill*         0x000000000000ead2        0x6 
 .rodata.__mprec_bigtens
                0x000000000000ead8       0x28 /home/tech/ti/ccsv7/tools/compiler/gcc-arm-none-eabi-6-2017-q1-update/bin/../lib/gcc/arm-none-eabi/6.3.1/../../../../arm-none-eabi/lib/thumb/v7e-m/fpv4-sp/hard/libc.a(lib_a-mprec.o)
                0x000000000000ead8                __mprec_bigtens
 .rodata.__mprec_tens
                0x000000000000eb00       0xc8 /home/tech/ti/ccsv7/tools/compiler/gcc-arm-none-eabi-6-2017-q1-update/bin/../lib/gcc/arm-none-eabi/6.3.1/../../../../arm-none-eabi/lib/thumb/v7e-m/fpv4-sp/hard/libc.a(lib_a-mprec.o)
                0x000000000000eb00                __mprec_tens
 .rodata.__mprec_tinytens
                0x000000000000ebc8       0x28 /home/tech/ti/ccsv7/tools/compiler/gcc-arm-none-eabi-6-2017-q1-update/bin/../lib/gcc/arm-none-eabi/6.3.1/../../../../arm-none-eabi/lib/thumb/v7e-m/fpv4-sp/hard/libc.a(lib_a-mprec.o)
                0x000000000000ebc8                __mprec_tinytens
 .rodata.p05.7183
                0x000000000000ebf0        0xc /home/tech/ti/ccsv7/tools/compiler/gcc-arm-none-eabi-6-2017-q1-update/bin/../lib/gcc/arm-none-eabi/6.3.1/../../../../arm-none-eabi/lib/thumb/v7e-m/fpv4-sp/hard/libc.a(lib_a-mprec.o)
 .rodata._svfiprintf_r.str1.4
                0x000000000000ebfc       0x2f /home/tech/ti/ccsv7/tools/compiler/gcc-arm-none-eabi-6-2017-q1-update/bin/../lib/gcc/arm-none-eabi/6.3.1/../../../../arm-none-eabi/lib/thumb/v7e-m/fpv4-sp/hard/libc.a(lib_a-svfiprintf.o)
 .rodata.blanks.8331
                0x000000000000ebfc       0x10 /home/tech/ti/ccsv7/tools/compiler/gcc-arm-none-eabi-6-2017-q1-update/bin/../lib/gcc/arm-none-eabi/6.3.1/../../../../arm-none-eabi/lib/thumb/v7e-m/fpv4-sp/hard/libc.a(lib_a-svfiprintf.o)
 .rodata.zeroes.8332
                0x000000000000ec0c       0x10 /home/tech/ti/ccsv7/tools/compiler/gcc-arm-none-eabi-6-2017-q1-update/bin/../lib/gcc/arm-none-eabi/6.3.1/../../../../arm-none-eabi/lib/thumb/v7e-m/fpv4-sp/hard/libc.a(lib_a-svfiprintf.o)
 .rodata._vfiprintf_r.str1.4
                0x000000000000ec1c       0x2f /home/tech/ti/ccsv7/tools/compiler/gcc-arm-none-eabi-6-2017-q1-update/bin/../lib/gcc/arm-none-eabi/6.3.1/../../../../arm-none-eabi/lib/thumb/v7e-m/fpv4-sp/hard/libc.a(lib_a-vfiprintf.o)
 .rodata.blanks.8345
                0x000000000000ec1c       0x10 /home/tech/ti/ccsv7/tools/compiler/gcc-arm-none-eabi-6-2017-q1-update/bin/../lib/gcc/arm-none-eabi/6.3.1/../../../../arm-none-eabi/lib/thumb/v7e-m/fpv4-sp/hard/libc.a(lib_a-vfiprintf.o)
 .rodata.zeroes.8346
                0x000000000000ec2c       0x10 /home/tech/ti/ccsv7/tools/compiler/gcc-arm-none-eabi-6-2017-q1-update/bin/../lib/gcc/arm-none-eabi/6.3.1/../../../../arm-none-eabi/lib/thumb/v7e-m/fpv4-sp/hard/libc.a(lib_a-vfiprintf.o)
 .rodata._ctype_
                0x000000000000ec3c      0x101 /home/tech/ti/ccsv7/tools/compiler/gcc-arm-none-eabi-6-2017-q1-update/bin/../lib/gcc/arm-none-eabi/6.3.1/../../../../arm-none-eabi/lib/thumb/v7e-m/fpv4-sp/hard/libc.a(lib_a-ctype_.o)
                0x000000000000ec3c                _ctype_
 *fill*         0x000000000000ed3d        0x3 
 .rodata.initialise_monitor_handles.str1.4
                0x000000000000ed40        0x4 /home/tech/ti/ccsv7/tools/compiler/gcc-arm-none-eabi-6-2017-q1-update/bin/../lib/gcc/arm-none-eabi/6.3.1/../../../../arm-none-eabi/lib/thumb/v7e-m/fpv4-sp/hard/librdimon.a(rdimon-syscalls.o)

.eh_frame       0x000000000000ed44        0x4
 .eh_frame      0x000000000000ed44        0x0 /home/tech/ti/ccsv7/tools/compiler/gcc-arm-none-eabi-6-2017-q1-update/bin/../lib/gcc/arm-none-eabi/6.3.1/thumb/v7e-m/fpv4-sp/hard/crtbegin.o
 .eh_frame      0x000000000000ed44        0x4 /home/tech/ti/ccsv7/tools/compiler/gcc-arm-none-eabi-6-2017-q1-update/bin/../lib/gcc/arm-none-eabi/6.3.1/thumb/v7e-m/fpv4-sp/hard/crtend.o

.const:g_ppui32GPIOIntMapBlizzard
                0x000000000000ed48       0xc0
 .const:g_ppui32GPIOIntMapBlizzard
                0x000000000000ed48       0xc0 ../ccs/Debug/driverlib.lib(gpio.obj)

.const          0x000000000000ee08       0x88
 .const         0x000000000000ee08        0x8 ../ccs/Debug/driverlib.lib(gpio.obj)
 .const         0x000000000000ee10        0x8 ../ccs/Debug/driverlib.lib(i2c.obj)
 .const         0x000000000000ee18       0x70 ../ccs/Debug/driverlib.lib(interrupt.obj)
 .const         0x000000000000ee88        0x8 ../ccs/Debug/driverlib.lib(sysctl.obj)

.const:g_ppui32GPIOIntMapSnowflake
                0x000000000000ee90       0xd8
 .const:g_ppui32GPIOIntMapSnowflake
                0x000000000000ee90       0xd8 ../ccs/Debug/driverlib.lib(gpio.obj)

.const:g_pui32GPIOBaseAddrs
                0x000000000000ef68       0x90
 .const:g_pui32GPIOBaseAddrs
                0x000000000000ef68       0x90 ../ccs/Debug/driverlib.lib(gpio.obj)

.const:g_ppui32I2CIntMap
                0x000000000000eff8       0x30
 .const:g_ppui32I2CIntMap
                0x000000000000eff8       0x30 ../ccs/Debug/driverlib.lib(i2c.obj)

.const:g_ppui32I2CIntMapSnowflake
                0x000000000000f028       0x50
 .const:g_ppui32I2CIntMapSnowflake
                0x000000000000f028       0x50 ../ccs/Debug/driverlib.lib(i2c.obj)

.const:g_pui32Regs
                0x000000000000f078       0x9c
 .const:g_pui32Regs
                0x000000000000f078       0x9c ../ccs/Debug/driverlib.lib(interrupt.obj)

.const:g_pui32Xtals
                0x000000000000f114       0x6c
 .const:g_pui32Xtals
                0x000000000000f114       0x6c ../ccs/Debug/driverlib.lib(sysctl.obj)

.const:g_pppui32XTALtoVCO
                0x000000000000f180      0x1b0
 .const:g_pppui32XTALtoVCO
                0x000000000000f180      0x1b0 ../ccs/Debug/driverlib.lib(sysctl.obj)

.const:g_sXTALtoMEMTIM
                0x000000000000f330       0x30
 .const:g_sXTALtoMEMTIM
                0x000000000000f330       0x30 ../ccs/Debug/driverlib.lib(sysctl.obj)

.data           0x0000000020000270      0x9b4 load address 0x000000000000f360
                0x000000000000f360                __data_load__ = LOADADDR (.data)
                0x0000000020000270                __data_start__ = .
 *(.data)
 .data          0x0000000020000270        0x0 /home/tech/ti/ccsv7/tools/compiler/gcc-arm-none-eabi-6-2017-q1-update/bin/../lib/gcc/arm-none-eabi/6.3.1/thumb/v7e-m/fpv4-sp/hard/crti.o
 .data          0x0000000020000270        0x4 /home/tech/ti/ccsv7/tools/compiler/gcc-arm-none-eabi-6-2017-q1-update/bin/../lib/gcc/arm-none-eabi/6.3.1/thumb/v7e-m/fpv4-sp/hard/crtbegin.o
                0x0000000020000270                __dso_handle
 .data          0x0000000020000274        0x0 /home/tech/ti/ccsv7/tools/compiler/gcc-arm-none-eabi-6-2017-q1-update/bin/../lib/gcc/arm-none-eabi/6.3.1/../../../../arm-none-eabi/lib/thumb/v7e-m/fpv4-sp/hard/crt0.o
 .data          0x0000000020000274        0x0 ./main.o
 .data          0x0000000020000274        0x0 ./tm4c123gh6pm_startup_ccs_gcc.o
 .data          0x0000000020000274        0x0 /home/tech/ti/ccsv7/tools/compiler/gcc-arm-none-eabi-6-2017-q1-update/bin/../lib/gcc/arm-none-eabi/6.3.1/../../../../arm-none-eabi/lib/thumb/v7e-m/fpv4-sp/hard/libc.a(lib_a-atof.o)
 .data          0x0000000020000274        0x0 /home/tech/ti/ccsv7/tools/compiler/gcc-arm-none-eabi-6-2017-q1-update/bin/../lib/gcc/arm-none-eabi/6.3.1/../../../../arm-none-eabi/lib/thumb/v7e-m/fpv4-sp/hard/libc.a(lib_a-atol.o)
 .data          0x0000000020000274        0x0 /home/tech/ti/ccsv7/tools/compiler/gcc-arm-none-eabi-6-2017-q1-update/bin/../lib/gcc/arm-none-eabi/6.3.1/../../../../arm-none-eabi/lib/thumb/v7e-m/fpv4-sp/hard/libc.a(lib_a-exit.o)
 .data          0x0000000020000274        0x0 /home/tech/ti/ccsv7/tools/compiler/gcc-arm-none-eabi-6-2017-q1-update/bin/../lib/gcc/arm-none-eabi/6.3.1/../../../../arm-none-eabi/lib/thumb/v7e-m/fpv4-sp/hard/libc.a(lib_a-impure.o)
 .data          0x0000000020000274        0x0 /home/tech/ti/ccsv7/tools/compiler/gcc-arm-none-eabi-6-2017-q1-update/bin/../lib/gcc/arm-none-eabi/6.3.1/../../../../arm-none-eabi/lib/thumb/v7e-m/fpv4-sp/hard/libc.a(lib_a-init.o)
 .data          0x0000000020000274        0x0 /home/tech/ti/ccsv7/tools/compiler/gcc-arm-none-eabi-6-2017-q1-update/bin/../lib/gcc/arm-none-eabi/6.3.1/../../../../arm-none-eabi/lib/thumb/v7e-m/fpv4-sp/hard/libc.a(lib_a-memset.o)
 .data          0x0000000020000274        0x0 /home/tech/ti/ccsv7/tools/compiler/gcc-arm-none-eabi-6-2017-q1-update/bin/../lib/gcc/arm-none-eabi/6.3.1/../../../../arm-none-eabi/lib/thumb/v7e-m/fpv4-sp/hard/libc.a(lib_a-printf.o)
 .data          0x0000000020000274        0x0 /home/tech/ti/ccsv7/tools/compiler/gcc-arm-none-eabi-6-2017-q1-update/bin/../lib/gcc/arm-none-eabi/6.3.1/../../../../arm-none-eabi/lib/thumb/v7e-m/fpv4-sp/hard/libc.a(lib_a-putchar.o)
 .data          0x0000000020000274        0x0 /home/tech/ti/ccsv7/tools/compiler/gcc-arm-none-eabi-6-2017-q1-update/bin/../lib/gcc/arm-none-eabi/6.3.1/../../../../arm-none-eabi/lib/thumb/v7e-m/fpv4-sp/hard/libc.a(lib_a-sprintf.o)
 .data          0x0000000020000274        0x0 /home/tech/ti/ccsv7/tools/compiler/gcc-arm-none-eabi-6-2017-q1-update/bin/../lib/gcc/arm-none-eabi/6.3.1/../../../../arm-none-eabi/lib/thumb/v7e-m/fpv4-sp/hard/libc.a(lib_a-strtod.o)
 .data          0x0000000020000274        0x0 /home/tech/ti/ccsv7/tools/compiler/gcc-arm-none-eabi-6-2017-q1-update/bin/../lib/gcc/arm-none-eabi/6.3.1/../../../../arm-none-eabi/lib/thumb/v7e-m/fpv4-sp/hard/libc.a(lib_a-strtol.o)
 .data          0x0000000020000274        0x0 /home/tech/ti/ccsv7/tools/compiler/gcc-arm-none-eabi-6-2017-q1-update/bin/../lib/gcc/arm-none-eabi/6.3.1/../../../../arm-none-eabi/lib/thumb/v7e-m/fpv4-sp/hard/libc.a(lib_a-svfprintf.o)
 .data          0x0000000020000274        0x0 /home/tech/ti/ccsv7/tools/compiler/gcc-arm-none-eabi-6-2017-q1-update/bin/../lib/gcc/arm-none-eabi/6.3.1/../../../../arm-none-eabi/lib/thumb/v7e-m/fpv4-sp/hard/libc.a(lib_a-vfprintf.o)
 .data          0x0000000020000274        0x0 /home/tech/ti/ccsv7/tools/compiler/gcc-arm-none-eabi-6-2017-q1-update/bin/../lib/gcc/arm-none-eabi/6.3.1/../../../../arm-none-eabi/lib/thumb/v7e-m/fpv4-sp/hard/libc.a(lib_a-wsetup.o)
 .data          0x0000000020000274        0x0 /home/tech/ti/ccsv7/tools/compiler/gcc-arm-none-eabi-6-2017-q1-update/bin/../lib/gcc/arm-none-eabi/6.3.1/../../../../arm-none-eabi/lib/thumb/v7e-m/fpv4-sp/hard/libc.a(lib_a-__call_atexit.o)
 .data          0x0000000020000274        0x0 /home/tech/ti/ccsv7/tools/compiler/gcc-arm-none-eabi-6-2017-q1-update/bin/../lib/gcc/arm-none-eabi/6.3.1/../../../../arm-none-eabi/lib/thumb/v7e-m/fpv4-sp/hard/libc.a(lib_a-atexit.o)
 .data          0x0000000020000274        0x0 /home/tech/ti/ccsv7/tools/compiler/gcc-arm-none-eabi-6-2017-q1-update/bin/../lib/gcc/arm-none-eabi/6.3.1/../../../../arm-none-eabi/lib/thumb/v7e-m/fpv4-sp/hard/libc.a(lib_a-dtoa.o)
 .data          0x0000000020000274        0x0 /home/tech/ti/ccsv7/tools/compiler/gcc-arm-none-eabi-6-2017-q1-update/bin/../lib/gcc/arm-none-eabi/6.3.1/../../../../arm-none-eabi/lib/thumb/v7e-m/fpv4-sp/hard/libc.a(lib_a-fflush.o)
 .data          0x0000000020000274        0x0 /home/tech/ti/ccsv7/tools/compiler/gcc-arm-none-eabi-6-2017-q1-update/bin/../lib/gcc/arm-none-eabi/6.3.1/../../../../arm-none-eabi/lib/thumb/v7e-m/fpv4-sp/hard/libc.a(lib_a-findfp.o)
 .data          0x0000000020000274        0x0 /home/tech/ti/ccsv7/tools/compiler/gcc-arm-none-eabi-6-2017-q1-update/bin/../lib/gcc/arm-none-eabi/6.3.1/../../../../arm-none-eabi/lib/thumb/v7e-m/fpv4-sp/hard/libc.a(lib_a-fini.o)
 .data          0x0000000020000274        0x0 /home/tech/ti/ccsv7/tools/compiler/gcc-arm-none-eabi-6-2017-q1-update/bin/../lib/gcc/arm-none-eabi/6.3.1/../../../../arm-none-eabi/lib/thumb/v7e-m/fpv4-sp/hard/libc.a(lib_a-freer.o)
 .data          0x0000000020000274        0x0 /home/tech/ti/ccsv7/tools/compiler/gcc-arm-none-eabi-6-2017-q1-update/bin/../lib/gcc/arm-none-eabi/6.3.1/../../../../arm-none-eabi/lib/thumb/v7e-m/fpv4-sp/hard/libc.a(lib_a-fwalk.o)
 .data          0x0000000020000274        0x0 /home/tech/ti/ccsv7/tools/compiler/gcc-arm-none-eabi-6-2017-q1-update/bin/../lib/gcc/arm-none-eabi/6.3.1/../../../../arm-none-eabi/lib/thumb/v7e-m/fpv4-sp/hard/libc.a(lib_a-gdtoa-gethex.o)
 .data          0x0000000020000274        0x0 /home/tech/ti/ccsv7/tools/compiler/gcc-arm-none-eabi-6-2017-q1-update/bin/../lib/gcc/arm-none-eabi/6.3.1/../../../../arm-none-eabi/lib/thumb/v7e-m/fpv4-sp/hard/libc.a(lib_a-gdtoa-hexnan.o)
 .data          0x0000000020000274        0x0 /home/tech/ti/ccsv7/tools/compiler/gcc-arm-none-eabi-6-2017-q1-update/bin/../lib/gcc/arm-none-eabi/6.3.1/../../../../arm-none-eabi/lib/thumb/v7e-m/fpv4-sp/hard/libc.a(lib_a-locale.o)
 .data          0x0000000020000274        0x0 /home/tech/ti/ccsv7/tools/compiler/gcc-arm-none-eabi-6-2017-q1-update/bin/../lib/gcc/arm-none-eabi/6.3.1/../../../../arm-none-eabi/lib/thumb/v7e-m/fpv4-sp/hard/libc.a(lib_a-localeconv.o)
 .data          0x0000000020000274        0x0 /home/tech/ti/ccsv7/tools/compiler/gcc-arm-none-eabi-6-2017-q1-update/bin/../lib/gcc/arm-none-eabi/6.3.1/../../../../arm-none-eabi/lib/thumb/v7e-m/fpv4-sp/hard/libc.a(lib_a-lock.o)
 .data          0x0000000020000274        0x0 /home/tech/ti/ccsv7/tools/compiler/gcc-arm-none-eabi-6-2017-q1-update/bin/../lib/gcc/arm-none-eabi/6.3.1/../../../../arm-none-eabi/lib/thumb/v7e-m/fpv4-sp/hard/libc.a(lib_a-makebuf.o)
 .data          0x0000000020000274        0x0 /home/tech/ti/ccsv7/tools/compiler/gcc-arm-none-eabi-6-2017-q1-update/bin/../lib/gcc/arm-none-eabi/6.3.1/../../../../arm-none-eabi/lib/thumb/v7e-m/fpv4-sp/hard/libc.a(lib_a-mallocr.o)
 .data          0x0000000020000274        0x0 /home/tech/ti/ccsv7/tools/compiler/gcc-arm-none-eabi-6-2017-q1-update/bin/../lib/gcc/arm-none-eabi/6.3.1/../../../../arm-none-eabi/lib/thumb/v7e-m/fpv4-sp/hard/libc.a(lib_a-mbtowc_r.o)
 .data          0x0000000020000274        0x0 /home/tech/ti/ccsv7/tools/compiler/gcc-arm-none-eabi-6-2017-q1-update/bin/../lib/gcc/arm-none-eabi/6.3.1/../../../../arm-none-eabi/lib/thumb/v7e-m/fpv4-sp/hard/libc.a(lib_a-memchr.o)
 .data          0x0000000020000274        0x0 /home/tech/ti/ccsv7/tools/compiler/gcc-arm-none-eabi-6-2017-q1-update/bin/../lib/gcc/arm-none-eabi/6.3.1/../../../../arm-none-eabi/lib/thumb/v7e-m/fpv4-sp/hard/libc.a(lib_a-memcpy.o)
 .data          0x0000000020000274        0x0 /home/tech/ti/ccsv7/tools/compiler/gcc-arm-none-eabi-6-2017-q1-update/bin/../lib/gcc/arm-none-eabi/6.3.1/../../../../arm-none-eabi/lib/thumb/v7e-m/fpv4-sp/hard/libc.a(lib_a-mlock.o)
 .data          0x0000000020000274        0x0 /home/tech/ti/ccsv7/tools/compiler/gcc-arm-none-eabi-6-2017-q1-update/bin/../lib/gcc/arm-none-eabi/6.3.1/../../../../arm-none-eabi/lib/thumb/v7e-m/fpv4-sp/hard/libc.a(lib_a-mprec.o)
 .data          0x0000000020000274        0x0 /home/tech/ti/ccsv7/tools/compiler/gcc-arm-none-eabi-6-2017-q1-update/bin/../lib/gcc/arm-none-eabi/6.3.1/../../../../arm-none-eabi/lib/thumb/v7e-m/fpv4-sp/hard/libc.a(lib_a-putc.o)
 .data          0x0000000020000274        0x0 /home/tech/ti/ccsv7/tools/compiler/gcc-arm-none-eabi-6-2017-q1-update/bin/../lib/gcc/arm-none-eabi/6.3.1/../../../../arm-none-eabi/lib/thumb/v7e-m/fpv4-sp/hard/libc.a(lib_a-sbrkr.o)
 .data          0x0000000020000274        0x0 /home/tech/ti/ccsv7/tools/compiler/gcc-arm-none-eabi-6-2017-q1-update/bin/../lib/gcc/arm-none-eabi/6.3.1/../../../../arm-none-eabi/lib/thumb/v7e-m/fpv4-sp/hard/libc.a(lib_a-sf_nan.o)
 .data          0x0000000020000274        0x0 /home/tech/ti/ccsv7/tools/compiler/gcc-arm-none-eabi-6-2017-q1-update/bin/../lib/gcc/arm-none-eabi/6.3.1/../../../../arm-none-eabi/lib/thumb/v7e-m/fpv4-sp/hard/libc.a(lib_a-stdio.o)
 .data          0x0000000020000274        0x0 /home/tech/ti/ccsv7/tools/compiler/gcc-arm-none-eabi-6-2017-q1-update/bin/../lib/gcc/arm-none-eabi/6.3.1/../../../../arm-none-eabi/lib/thumb/v7e-m/fpv4-sp/hard/libc.a(lib_a-strcmp.o)
 .data          0x0000000020000274        0x0 /home/tech/ti/ccsv7/tools/compiler/gcc-arm-none-eabi-6-2017-q1-update/bin/../lib/gcc/arm-none-eabi/6.3.1/../../../../arm-none-eabi/lib/thumb/v7e-m/fpv4-sp/hard/libc.a(lib_a-strlen.o)
 .data          0x0000000020000274        0x0 /home/tech/ti/ccsv7/tools/compiler/gcc-arm-none-eabi-6-2017-q1-update/bin/../lib/gcc/arm-none-eabi/6.3.1/../../../../arm-none-eabi/lib/thumb/v7e-m/fpv4-sp/hard/libc.a(lib_a-strncmp.o)
 .data          0x0000000020000274        0x0 /home/tech/ti/ccsv7/tools/compiler/gcc-arm-none-eabi-6-2017-q1-update/bin/../lib/gcc/arm-none-eabi/6.3.1/../../../../arm-none-eabi/lib/thumb/v7e-m/fpv4-sp/hard/libc.a(lib_a-svfiprintf.o)
 .data          0x0000000020000274        0x0 /home/tech/ti/ccsv7/tools/compiler/gcc-arm-none-eabi-6-2017-q1-update/bin/../lib/gcc/arm-none-eabi/6.3.1/../../../../arm-none-eabi/lib/thumb/v7e-m/fpv4-sp/hard/libc.a(lib_a-vfiprintf.o)
 .data          0x0000000020000274        0x0 /home/tech/ti/ccsv7/tools/compiler/gcc-arm-none-eabi-6-2017-q1-update/bin/../lib/gcc/arm-none-eabi/6.3.1/../../../../arm-none-eabi/lib/thumb/v7e-m/fpv4-sp/hard/libc.a(lib_a-wbuf.o)
 .data          0x0000000020000274        0x0 /home/tech/ti/ccsv7/tools/compiler/gcc-arm-none-eabi-6-2017-q1-update/bin/../lib/gcc/arm-none-eabi/6.3.1/../../../../arm-none-eabi/lib/thumb/v7e-m/fpv4-sp/hard/libc.a(lib_a-wctomb_r.o)
 .data          0x0000000020000274        0x0 /home/tech/ti/ccsv7/tools/compiler/gcc-arm-none-eabi-6-2017-q1-update/bin/../lib/gcc/arm-none-eabi/6.3.1/../../../../arm-none-eabi/lib/thumb/v7e-m/fpv4-sp/hard/libc.a(lib_a-writer.o)
 .data          0x0000000020000274        0x0 /home/tech/ti/ccsv7/tools/compiler/gcc-arm-none-eabi-6-2017-q1-update/bin/../lib/gcc/arm-none-eabi/6.3.1/../../../../arm-none-eabi/lib/thumb/v7e-m/fpv4-sp/hard/libc.a(lib_a-__atexit.o)
 .data          0x0000000020000274        0x0 /home/tech/ti/ccsv7/tools/compiler/gcc-arm-none-eabi-6-2017-q1-update/bin/../lib/gcc/arm-none-eabi/6.3.1/../../../../arm-none-eabi/lib/thumb/v7e-m/fpv4-sp/hard/libc.a(lib_a-callocr.o)
 .data          0x0000000020000274        0x0 /home/tech/ti/ccsv7/tools/compiler/gcc-arm-none-eabi-6-2017-q1-update/bin/../lib/gcc/arm-none-eabi/6.3.1/../../../../arm-none-eabi/lib/thumb/v7e-m/fpv4-sp/hard/libc.a(lib_a-closer.o)
 .data          0x0000000020000274        0x0 /home/tech/ti/ccsv7/tools/compiler/gcc-arm-none-eabi-6-2017-q1-update/bin/../lib/gcc/arm-none-eabi/6.3.1/../../../../arm-none-eabi/lib/thumb/v7e-m/fpv4-sp/hard/libc.a(lib_a-ctype_.o)
 .data          0x0000000020000274        0x0 /home/tech/ti/ccsv7/tools/compiler/gcc-arm-none-eabi-6-2017-q1-update/bin/../lib/gcc/arm-none-eabi/6.3.1/../../../../arm-none-eabi/lib/thumb/v7e-m/fpv4-sp/hard/libc.a(lib_a-fclose.o)
 .data          0x0000000020000274        0x0 /home/tech/ti/ccsv7/tools/compiler/gcc-arm-none-eabi-6-2017-q1-update/bin/../lib/gcc/arm-none-eabi/6.3.1/../../../../arm-none-eabi/lib/thumb/v7e-m/fpv4-sp/hard/libc.a(lib_a-fputwc.o)
 .data          0x0000000020000274        0x0 /home/tech/ti/ccsv7/tools/compiler/gcc-arm-none-eabi-6-2017-q1-update/bin/../lib/gcc/arm-none-eabi/6.3.1/../../../../arm-none-eabi/lib/thumb/v7e-m/fpv4-sp/hard/libc.a(lib_a-fstatr.o)
 .data          0x0000000020000274        0x0 /home/tech/ti/ccsv7/tools/compiler/gcc-arm-none-eabi-6-2017-q1-update/bin/../lib/gcc/arm-none-eabi/6.3.1/../../../../arm-none-eabi/lib/thumb/v7e-m/fpv4-sp/hard/libc.a(lib_a-fvwrite.o)
 .data          0x0000000020000274        0x0 /home/tech/ti/ccsv7/tools/compiler/gcc-arm-none-eabi-6-2017-q1-update/bin/../lib/gcc/arm-none-eabi/6.3.1/../../../../arm-none-eabi/lib/thumb/v7e-m/fpv4-sp/hard/libc.a(lib_a-isattyr.o)
 .data          0x0000000020000274        0x0 /home/tech/ti/ccsv7/tools/compiler/gcc-arm-none-eabi-6-2017-q1-update/bin/../lib/gcc/arm-none-eabi/6.3.1/../../../../arm-none-eabi/lib/thumb/v7e-m/fpv4-sp/hard/libc.a(lib_a-lseekr.o)
 .data          0x0000000020000274        0x0 /home/tech/ti/ccsv7/tools/compiler/gcc-arm-none-eabi-6-2017-q1-update/bin/../lib/gcc/arm-none-eabi/6.3.1/../../../../arm-none-eabi/lib/thumb/v7e-m/fpv4-sp/hard/libc.a(lib_a-memmove.o)
 .data          0x0000000020000274        0x0 /home/tech/ti/ccsv7/tools/compiler/gcc-arm-none-eabi-6-2017-q1-update/bin/../lib/gcc/arm-none-eabi/6.3.1/../../../../arm-none-eabi/lib/thumb/v7e-m/fpv4-sp/hard/libc.a(lib_a-readr.o)
 .data          0x0000000020000274        0x0 /home/tech/ti/ccsv7/tools/compiler/gcc-arm-none-eabi-6-2017-q1-update/bin/../lib/gcc/arm-none-eabi/6.3.1/../../../../arm-none-eabi/lib/thumb/v7e-m/fpv4-sp/hard/libc.a(lib_a-reallocr.o)
 .data          0x0000000020000274        0x0 /home/tech/ti/ccsv7/tools/compiler/gcc-arm-none-eabi-6-2017-q1-update/bin/../lib/gcc/arm-none-eabi/6.3.1/../../../../arm-none-eabi/lib/thumb/v7e-m/fpv4-sp/hard/libc.a(lib_a-reent.o)
 .data          0x0000000020000274        0x0 /home/tech/ti/ccsv7/tools/compiler/gcc-arm-none-eabi-6-2017-q1-update/bin/../lib/gcc/arm-none-eabi/6.3.1/../../../../arm-none-eabi/lib/thumb/v7e-m/fpv4-sp/hard/libc.a(lib_a-wcrtomb.o)
 .data          0x0000000020000274        0x0 /home/tech/ti/ccsv7/tools/compiler/gcc-arm-none-eabi-6-2017-q1-update/bin/../lib/gcc/arm-none-eabi/6.3.1/../../../../arm-none-eabi/lib/thumb/v7e-m/fpv4-sp/hard/librdimon.a(rdimon-syscalls.o)
 .data          0x0000000020000274        0x0 /home/tech/ti/ccsv7/tools/compiler/gcc-arm-none-eabi-6-2017-q1-update/bin/../lib/gcc/arm-none-eabi/6.3.1/../../../../arm-none-eabi/lib/thumb/v7e-m/fpv4-sp/hard/librdimon.a(rdimon-_exit.o)
 .data          0x0000000020000274        0x0 /home/tech/ti/ccsv7/tools/compiler/gcc-arm-none-eabi-6-2017-q1-update/bin/../lib/gcc/arm-none-eabi/6.3.1/../../../../arm-none-eabi/lib/thumb/v7e-m/fpv4-sp/hard/librdimon.a(rdimon-_kill.o)
 .data          0x0000000020000274        0x0 /home/tech/ti/ccsv7/tools/compiler/gcc-arm-none-eabi-6-2017-q1-update/bin/../lib/gcc/arm-none-eabi/6.3.1/../../../../arm-none-eabi/lib/thumb/v7e-m/fpv4-sp/hard/libc.a(lib_a-errno.o)
 .data          0x0000000020000274        0x0 /home/tech/ti/ccsv7/tools/compiler/gcc-arm-none-eabi-6-2017-q1-update/bin/../lib/gcc/arm-none-eabi/6.3.1/thumb/v7e-m/fpv4-sp/hard/libgcc.a(_arm_addsubdf3.o)
 .data          0x0000000020000274        0x0 /home/tech/ti/ccsv7/tools/compiler/gcc-arm-none-eabi-6-2017-q1-update/bin/../lib/gcc/arm-none-eabi/6.3.1/thumb/v7e-m/fpv4-sp/hard/libgcc.a(_arm_muldivdf3.o)
 .data          0x0000000020000274        0x0 /home/tech/ti/ccsv7/tools/compiler/gcc-arm-none-eabi-6-2017-q1-update/bin/../lib/gcc/arm-none-eabi/6.3.1/thumb/v7e-m/fpv4-sp/hard/libgcc.a(_arm_cmpdf2.o)
 .data          0x0000000020000274        0x0 /home/tech/ti/ccsv7/tools/compiler/gcc-arm-none-eabi-6-2017-q1-update/bin/../lib/gcc/arm-none-eabi/6.3.1/thumb/v7e-m/fpv4-sp/hard/libgcc.a(_arm_unorddf2.o)
 .data          0x0000000020000274        0x0 /home/tech/ti/ccsv7/tools/compiler/gcc-arm-none-eabi-6-2017-q1-update/bin/../lib/gcc/arm-none-eabi/6.3.1/thumb/v7e-m/fpv4-sp/hard/libgcc.a(_arm_fixdfsi.o)
 .data          0x0000000020000274        0x0 /home/tech/ti/ccsv7/tools/compiler/gcc-arm-none-eabi-6-2017-q1-update/bin/../lib/gcc/arm-none-eabi/6.3.1/thumb/v7e-m/fpv4-sp/hard/libgcc.a(_arm_fixunsdfsi.o)
 .data          0x0000000020000274        0x0 /home/tech/ti/ccsv7/tools/compiler/gcc-arm-none-eabi-6-2017-q1-update/bin/../lib/gcc/arm-none-eabi/6.3.1/thumb/v7e-m/fpv4-sp/hard/libgcc.a(_arm_truncdfsf2.o)
 .data          0x0000000020000274        0x0 /home/tech/ti/ccsv7/tools/compiler/gcc-arm-none-eabi-6-2017-q1-update/bin/../lib/gcc/arm-none-eabi/6.3.1/thumb/v7e-m/fpv4-sp/hard/libgcc.a(_aeabi_uldivmod.o)
 .data          0x0000000020000274        0x0 /home/tech/ti/ccsv7/tools/compiler/gcc-arm-none-eabi-6-2017-q1-update/bin/../lib/gcc/arm-none-eabi/6.3.1/thumb/v7e-m/fpv4-sp/hard/libgcc.a(_udivmoddi4.o)
 .data          0x0000000020000274        0x0 /home/tech/ti/ccsv7/tools/compiler/gcc-arm-none-eabi-6-2017-q1-update/bin/../lib/gcc/arm-none-eabi/6.3.1/thumb/v7e-m/fpv4-sp/hard/libgcc.a(_dvmd_tls.o)
 .data          0x0000000020000274        0x0 /home/tech/ti/ccsv7/tools/compiler/gcc-arm-none-eabi-6-2017-q1-update/bin/../lib/gcc/arm-none-eabi/6.3.1/thumb/v7e-m/fpv4-sp/hard/crtend.o
 .data          0x0000000020000274        0x0 /home/tech/ti/ccsv7/tools/compiler/gcc-arm-none-eabi-6-2017-q1-update/bin/../lib/gcc/arm-none-eabi/6.3.1/thumb/v7e-m/fpv4-sp/hard/crtn.o
 *(.data*)
 .data._impure_ptr
                0x0000000020000274        0x4 /home/tech/ti/ccsv7/tools/compiler/gcc-arm-none-eabi-6-2017-q1-update/bin/../lib/gcc/arm-none-eabi/6.3.1/../../../../arm-none-eabi/lib/thumb/v7e-m/fpv4-sp/hard/libc.a(lib_a-impure.o)
                0x0000000020000274                _impure_ptr
 .data.impure_data
                0x0000000020000278      0x428 /home/tech/ti/ccsv7/tools/compiler/gcc-arm-none-eabi-6-2017-q1-update/bin/../lib/gcc/arm-none-eabi/6.3.1/../../../../arm-none-eabi/lib/thumb/v7e-m/fpv4-sp/hard/libc.a(lib_a-impure.o)
 .data.__atexit_recursive_mutex
                0x00000000200006a0        0x4 /home/tech/ti/ccsv7/tools/compiler/gcc-arm-none-eabi-6-2017-q1-update/bin/../lib/gcc/arm-none-eabi/6.3.1/../../../../arm-none-eabi/lib/thumb/v7e-m/fpv4-sp/hard/libc.a(lib_a-__call_atexit.o)
                0x00000000200006a0                __atexit_recursive_mutex
 .data.__global_locale
                0x00000000200006a4      0x16c /home/tech/ti/ccsv7/tools/compiler/gcc-arm-none-eabi-6-2017-q1-update/bin/../lib/gcc/arm-none-eabi/6.3.1/../../../../arm-none-eabi/lib/thumb/v7e-m/fpv4-sp/hard/libc.a(lib_a-locale.o)
                0x00000000200006a4                __global_locale
 .data.__malloc_av_
                0x0000000020000810      0x408 /home/tech/ti/ccsv7/tools/compiler/gcc-arm-none-eabi-6-2017-q1-update/bin/../lib/gcc/arm-none-eabi/6.3.1/../../../../arm-none-eabi/lib/thumb/v7e-m/fpv4-sp/hard/libc.a(lib_a-mallocr.o)
                0x0000000020000810                __malloc_av_
 .data.__malloc_sbrk_base
                0x0000000020000c18        0x4 /home/tech/ti/ccsv7/tools/compiler/gcc-arm-none-eabi-6-2017-q1-update/bin/../lib/gcc/arm-none-eabi/6.3.1/../../../../arm-none-eabi/lib/thumb/v7e-m/fpv4-sp/hard/libc.a(lib_a-mallocr.o)
                0x0000000020000c18                __malloc_sbrk_base
 .data.__malloc_trim_threshold
                0x0000000020000c1c        0x4 /home/tech/ti/ccsv7/tools/compiler/gcc-arm-none-eabi-6-2017-q1-update/bin/../lib/gcc/arm-none-eabi/6.3.1/../../../../arm-none-eabi/lib/thumb/v7e-m/fpv4-sp/hard/libc.a(lib_a-mallocr.o)
                0x0000000020000c1c                __malloc_trim_threshold
 .data.__heap_limit
                0x0000000020000c20        0x4 /home/tech/ti/ccsv7/tools/compiler/gcc-arm-none-eabi-6-2017-q1-update/bin/../lib/gcc/arm-none-eabi/6.3.1/../../../../arm-none-eabi/lib/thumb/v7e-m/fpv4-sp/hard/librdimon.a(rdimon-syscalls.o)
                0x0000000020000c20                __heap_limit
                0x0000000020000c24                . = ALIGN (0x4)
                0x0000000020000c24                __data_end__ = .

.jcr            0x0000000020000c24        0x4 load address 0x000000000000fd14
 .jcr           0x0000000020000c24        0x0 /home/tech/ti/ccsv7/tools/compiler/gcc-arm-none-eabi-6-2017-q1-update/bin/../lib/gcc/arm-none-eabi/6.3.1/thumb/v7e-m/fpv4-sp/hard/crtbegin.o
 .jcr           0x0000000020000c24        0x4 /home/tech/ti/ccsv7/tools/compiler/gcc-arm-none-eabi-6-2017-q1-update/bin/../lib/gcc/arm-none-eabi/6.3.1/thumb/v7e-m/fpv4-sp/hard/crtend.o

.igot.plt       0x0000000020000c28        0x0 load address 0x000000000000fd18
 .igot.plt      0x0000000020000c28        0x0 /home/tech/ti/ccsv7/tools/compiler/gcc-arm-none-eabi-6-2017-q1-update/bin/../lib/gcc/arm-none-eabi/6.3.1/thumb/v7e-m/fpv4-sp/hard/crtbegin.o

.ARM.exidx      0x000000000000fd18        0x8
                0x000000000000fd18                __exidx_start = .
 *(.ARM.exidx* .gnu.linkonce.armexidx.*)
 .ARM.exidx     0x000000000000fd18        0x8 /home/tech/ti/ccsv7/tools/compiler/gcc-arm-none-eabi-6-2017-q1-update/bin/../lib/gcc/arm-none-eabi/6.3.1/../../../../arm-none-eabi/lib/thumb/v7e-m/fpv4-sp/hard/crt0.o
 .ARM.exidx     0x000000000000fd20        0x0 /home/tech/ti/ccsv7/tools/compiler/gcc-arm-none-eabi-6-2017-q1-update/bin/../lib/gcc/arm-none-eabi/6.3.1/thumb/v7e-m/fpv4-sp/hard/libgcc.a(_udivmoddi4.o)
                                          0x8 (size before relaxing)
                0x000000000000fd20                __exidx_end = .

.ARM.extab      0x000000000000fd20        0x0
 *(.ARM.extab* .gnu.linkonce.armextab.*)
 .ARM.extab     0x000000000000fd20        0x0 /home/tech/ti/ccsv7/tools/compiler/gcc-arm-none-eabi-6-2017-q1-update/bin/../lib/gcc/arm-none-eabi/6.3.1/../../../../arm-none-eabi/lib/thumb/v7e-m/fpv4-sp/hard/crt0.o
 .ARM.extab     0x000000000000fd20        0x0 /home/tech/ti/ccsv7/tools/compiler/gcc-arm-none-eabi-6-2017-q1-update/bin/../lib/gcc/arm-none-eabi/6.3.1/thumb/v7e-m/fpv4-sp/hard/libgcc.a(_udivmoddi4.o)

.rel.dyn        0x000000000000fd20        0x0
 .rel.iplt      0x000000000000fd20        0x0 /home/tech/ti/ccsv7/tools/compiler/gcc-arm-none-eabi-6-2017-q1-update/bin/../lib/gcc/arm-none-eabi/6.3.1/thumb/v7e-m/fpv4-sp/hard/crtbegin.o

.bss            0x0000000020000c28      0x408
                0x0000000020000c28                __bss_start__ = .
 *(.shbss)
 *(.bss)
 .bss           0x0000000020000c28        0x0 /home/tech/ti/ccsv7/tools/compiler/gcc-arm-none-eabi-6-2017-q1-update/bin/../lib/gcc/arm-none-eabi/6.3.1/thumb/v7e-m/fpv4-sp/hard/crti.o
 .bss           0x0000000020000c28       0x1c /home/tech/ti/ccsv7/tools/compiler/gcc-arm-none-eabi-6-2017-q1-update/bin/../lib/gcc/arm-none-eabi/6.3.1/thumb/v7e-m/fpv4-sp/hard/crtbegin.o
 .bss           0x0000000020000c44        0x0 /home/tech/ti/ccsv7/tools/compiler/gcc-arm-none-eabi-6-2017-q1-update/bin/../lib/gcc/arm-none-eabi/6.3.1/../../../../arm-none-eabi/lib/thumb/v7e-m/fpv4-sp/hard/crt0.o
 .bss           0x0000000020000c44        0x0 ./main.o
 .bss           0x0000000020000c44        0x0 ./tm4c123gh6pm_startup_ccs_gcc.o
 .bss           0x0000000020000c44        0x0 /home/tech/ti/ccsv7/tools/compiler/gcc-arm-none-eabi-6-2017-q1-update/bin/../lib/gcc/arm-none-eabi/6.3.1/../../../../arm-none-eabi/lib/thumb/v7e-m/fpv4-sp/hard/libc.a(lib_a-atof.o)
 .bss           0x0000000020000c44        0x0 /home/tech/ti/ccsv7/tools/compiler/gcc-arm-none-eabi-6-2017-q1-update/bin/../lib/gcc/arm-none-eabi/6.3.1/../../../../arm-none-eabi/lib/thumb/v7e-m/fpv4-sp/hard/libc.a(lib_a-atol.o)
 .bss           0x0000000020000c44        0x0 /home/tech/ti/ccsv7/tools/compiler/gcc-arm-none-eabi-6-2017-q1-update/bin/../lib/gcc/arm-none-eabi/6.3.1/../../../../arm-none-eabi/lib/thumb/v7e-m/fpv4-sp/hard/libc.a(lib_a-exit.o)
 .bss           0x0000000020000c44        0x0 /home/tech/ti/ccsv7/tools/compiler/gcc-arm-none-eabi-6-2017-q1-update/bin/../lib/gcc/arm-none-eabi/6.3.1/../../../../arm-none-eabi/lib/thumb/v7e-m/fpv4-sp/hard/libc.a(lib_a-impure.o)
 .bss           0x0000000020000c44        0x0 /home/tech/ti/ccsv7/tools/compiler/gcc-arm-none-eabi-6-2017-q1-update/bin/../lib/gcc/arm-none-eabi/6.3.1/../../../../arm-none-eabi/lib/thumb/v7e-m/fpv4-sp/hard/libc.a(lib_a-init.o)
 .bss           0x0000000020000c44        0x0 /home/tech/ti/ccsv7/tools/compiler/gcc-arm-none-eabi-6-2017-q1-update/bin/../lib/gcc/arm-none-eabi/6.3.1/../../../../arm-none-eabi/lib/thumb/v7e-m/fpv4-sp/hard/libc.a(lib_a-memset.o)
 .bss           0x0000000020000c44        0x0 /home/tech/ti/ccsv7/tools/compiler/gcc-arm-none-eabi-6-2017-q1-update/bin/../lib/gcc/arm-none-eabi/6.3.1/../../../../arm-none-eabi/lib/thumb/v7e-m/fpv4-sp/hard/libc.a(lib_a-printf.o)
 .bss           0x0000000020000c44        0x0 /home/tech/ti/ccsv7/tools/compiler/gcc-arm-none-eabi-6-2017-q1-update/bin/../lib/gcc/arm-none-eabi/6.3.1/../../../../arm-none-eabi/lib/thumb/v7e-m/fpv4-sp/hard/libc.a(lib_a-putchar.o)
 .bss           0x0000000020000c44        0x0 /home/tech/ti/ccsv7/tools/compiler/gcc-arm-none-eabi-6-2017-q1-update/bin/../lib/gcc/arm-none-eabi/6.3.1/../../../../arm-none-eabi/lib/thumb/v7e-m/fpv4-sp/hard/libc.a(lib_a-sprintf.o)
 .bss           0x0000000020000c44        0x0 /home/tech/ti/ccsv7/tools/compiler/gcc-arm-none-eabi-6-2017-q1-update/bin/../lib/gcc/arm-none-eabi/6.3.1/../../../../arm-none-eabi/lib/thumb/v7e-m/fpv4-sp/hard/libc.a(lib_a-strtod.o)
 .bss           0x0000000020000c44        0x0 /home/tech/ti/ccsv7/tools/compiler/gcc-arm-none-eabi-6-2017-q1-update/bin/../lib/gcc/arm-none-eabi/6.3.1/../../../../arm-none-eabi/lib/thumb/v7e-m/fpv4-sp/hard/libc.a(lib_a-strtol.o)
 .bss           0x0000000020000c44        0x0 /home/tech/ti/ccsv7/tools/compiler/gcc-arm-none-eabi-6-2017-q1-update/bin/../lib/gcc/arm-none-eabi/6.3.1/../../../../arm-none-eabi/lib/thumb/v7e-m/fpv4-sp/hard/libc.a(lib_a-svfprintf.o)
 .bss           0x0000000020000c44        0x0 /home/tech/ti/ccsv7/tools/compiler/gcc-arm-none-eabi-6-2017-q1-update/bin/../lib/gcc/arm-none-eabi/6.3.1/../../../../arm-none-eabi/lib/thumb/v7e-m/fpv4-sp/hard/libc.a(lib_a-vfprintf.o)
 .bss           0x0000000020000c44        0x0 /home/tech/ti/ccsv7/tools/compiler/gcc-arm-none-eabi-6-2017-q1-update/bin/../lib/gcc/arm-none-eabi/6.3.1/../../../../arm-none-eabi/lib/thumb/v7e-m/fpv4-sp/hard/libc.a(lib_a-wsetup.o)
 .bss           0x0000000020000c44        0x0 /home/tech/ti/ccsv7/tools/compiler/gcc-arm-none-eabi-6-2017-q1-update/bin/../lib/gcc/arm-none-eabi/6.3.1/../../../../arm-none-eabi/lib/thumb/v7e-m/fpv4-sp/hard/libc.a(lib_a-__call_atexit.o)
 .bss           0x0000000020000c44        0x0 /home/tech/ti/ccsv7/tools/compiler/gcc-arm-none-eabi-6-2017-q1-update/bin/../lib/gcc/arm-none-eabi/6.3.1/../../../../arm-none-eabi/lib/thumb/v7e-m/fpv4-sp/hard/libc.a(lib_a-atexit.o)
 .bss           0x0000000020000c44        0x0 /home/tech/ti/ccsv7/tools/compiler/gcc-arm-none-eabi-6-2017-q1-update/bin/../lib/gcc/arm-none-eabi/6.3.1/../../../../arm-none-eabi/lib/thumb/v7e-m/fpv4-sp/hard/libc.a(lib_a-dtoa.o)
 .bss           0x0000000020000c44        0x0 /home/tech/ti/ccsv7/tools/compiler/gcc-arm-none-eabi-6-2017-q1-update/bin/../lib/gcc/arm-none-eabi/6.3.1/../../../../arm-none-eabi/lib/thumb/v7e-m/fpv4-sp/hard/libc.a(lib_a-fflush.o)
 .bss           0x0000000020000c44        0x0 /home/tech/ti/ccsv7/tools/compiler/gcc-arm-none-eabi-6-2017-q1-update/bin/../lib/gcc/arm-none-eabi/6.3.1/../../../../arm-none-eabi/lib/thumb/v7e-m/fpv4-sp/hard/libc.a(lib_a-findfp.o)
 .bss           0x0000000020000c44        0x0 /home/tech/ti/ccsv7/tools/compiler/gcc-arm-none-eabi-6-2017-q1-update/bin/../lib/gcc/arm-none-eabi/6.3.1/../../../../arm-none-eabi/lib/thumb/v7e-m/fpv4-sp/hard/libc.a(lib_a-fini.o)
 .bss           0x0000000020000c44        0x0 /home/tech/ti/ccsv7/tools/compiler/gcc-arm-none-eabi-6-2017-q1-update/bin/../lib/gcc/arm-none-eabi/6.3.1/../../../../arm-none-eabi/lib/thumb/v7e-m/fpv4-sp/hard/libc.a(lib_a-freer.o)
 .bss           0x0000000020000c44        0x0 /home/tech/ti/ccsv7/tools/compiler/gcc-arm-none-eabi-6-2017-q1-update/bin/../lib/gcc/arm-none-eabi/6.3.1/../../../../arm-none-eabi/lib/thumb/v7e-m/fpv4-sp/hard/libc.a(lib_a-fwalk.o)
 .bss           0x0000000020000c44        0x0 /home/tech/ti/ccsv7/tools/compiler/gcc-arm-none-eabi-6-2017-q1-update/bin/../lib/gcc/arm-none-eabi/6.3.1/../../../../arm-none-eabi/lib/thumb/v7e-m/fpv4-sp/hard/libc.a(lib_a-gdtoa-gethex.o)
 .bss           0x0000000020000c44        0x0 /home/tech/ti/ccsv7/tools/compiler/gcc-arm-none-eabi-6-2017-q1-update/bin/../lib/gcc/arm-none-eabi/6.3.1/../../../../arm-none-eabi/lib/thumb/v7e-m/fpv4-sp/hard/libc.a(lib_a-gdtoa-hexnan.o)
 .bss           0x0000000020000c44        0x0 /home/tech/ti/ccsv7/tools/compiler/gcc-arm-none-eabi-6-2017-q1-update/bin/../lib/gcc/arm-none-eabi/6.3.1/../../../../arm-none-eabi/lib/thumb/v7e-m/fpv4-sp/hard/libc.a(lib_a-locale.o)
 .bss           0x0000000020000c44        0x0 /home/tech/ti/ccsv7/tools/compiler/gcc-arm-none-eabi-6-2017-q1-update/bin/../lib/gcc/arm-none-eabi/6.3.1/../../../../arm-none-eabi/lib/thumb/v7e-m/fpv4-sp/hard/libc.a(lib_a-localeconv.o)
 .bss           0x0000000020000c44        0x0 /home/tech/ti/ccsv7/tools/compiler/gcc-arm-none-eabi-6-2017-q1-update/bin/../lib/gcc/arm-none-eabi/6.3.1/../../../../arm-none-eabi/lib/thumb/v7e-m/fpv4-sp/hard/libc.a(lib_a-lock.o)
 .bss           0x0000000020000c44        0x0 /home/tech/ti/ccsv7/tools/compiler/gcc-arm-none-eabi-6-2017-q1-update/bin/../lib/gcc/arm-none-eabi/6.3.1/../../../../arm-none-eabi/lib/thumb/v7e-m/fpv4-sp/hard/libc.a(lib_a-makebuf.o)
 .bss           0x0000000020000c44        0x0 /home/tech/ti/ccsv7/tools/compiler/gcc-arm-none-eabi-6-2017-q1-update/bin/../lib/gcc/arm-none-eabi/6.3.1/../../../../arm-none-eabi/lib/thumb/v7e-m/fpv4-sp/hard/libc.a(lib_a-mallocr.o)
 .bss           0x0000000020000c44        0x0 /home/tech/ti/ccsv7/tools/compiler/gcc-arm-none-eabi-6-2017-q1-update/bin/../lib/gcc/arm-none-eabi/6.3.1/../../../../arm-none-eabi/lib/thumb/v7e-m/fpv4-sp/hard/libc.a(lib_a-mbtowc_r.o)
 .bss           0x0000000020000c44        0x0 /home/tech/ti/ccsv7/tools/compiler/gcc-arm-none-eabi-6-2017-q1-update/bin/../lib/gcc/arm-none-eabi/6.3.1/../../../../arm-none-eabi/lib/thumb/v7e-m/fpv4-sp/hard/libc.a(lib_a-memchr.o)
 .bss           0x0000000020000c44        0x0 /home/tech/ti/ccsv7/tools/compiler/gcc-arm-none-eabi-6-2017-q1-update/bin/../lib/gcc/arm-none-eabi/6.3.1/../../../../arm-none-eabi/lib/thumb/v7e-m/fpv4-sp/hard/libc.a(lib_a-memcpy.o)
 .bss           0x0000000020000c44        0x0 /home/tech/ti/ccsv7/tools/compiler/gcc-arm-none-eabi-6-2017-q1-update/bin/../lib/gcc/arm-none-eabi/6.3.1/../../../../arm-none-eabi/lib/thumb/v7e-m/fpv4-sp/hard/libc.a(lib_a-mlock.o)
 .bss           0x0000000020000c44        0x0 /home/tech/ti/ccsv7/tools/compiler/gcc-arm-none-eabi-6-2017-q1-update/bin/../lib/gcc/arm-none-eabi/6.3.1/../../../../arm-none-eabi/lib/thumb/v7e-m/fpv4-sp/hard/libc.a(lib_a-mprec.o)
 .bss           0x0000000020000c44        0x0 /home/tech/ti/ccsv7/tools/compiler/gcc-arm-none-eabi-6-2017-q1-update/bin/../lib/gcc/arm-none-eabi/6.3.1/../../../../arm-none-eabi/lib/thumb/v7e-m/fpv4-sp/hard/libc.a(lib_a-putc.o)
 .bss           0x0000000020000c44        0x0 /home/tech/ti/ccsv7/tools/compiler/gcc-arm-none-eabi-6-2017-q1-update/bin/../lib/gcc/arm-none-eabi/6.3.1/../../../../arm-none-eabi/lib/thumb/v7e-m/fpv4-sp/hard/libc.a(lib_a-sbrkr.o)
 .bss           0x0000000020000c44        0x0 /home/tech/ti/ccsv7/tools/compiler/gcc-arm-none-eabi-6-2017-q1-update/bin/../lib/gcc/arm-none-eabi/6.3.1/../../../../arm-none-eabi/lib/thumb/v7e-m/fpv4-sp/hard/libc.a(lib_a-sf_nan.o)
 .bss           0x0000000020000c44        0x0 /home/tech/ti/ccsv7/tools/compiler/gcc-arm-none-eabi-6-2017-q1-update/bin/../lib/gcc/arm-none-eabi/6.3.1/../../../../arm-none-eabi/lib/thumb/v7e-m/fpv4-sp/hard/libc.a(lib_a-stdio.o)
 .bss           0x0000000020000c44        0x0 /home/tech/ti/ccsv7/tools/compiler/gcc-arm-none-eabi-6-2017-q1-update/bin/../lib/gcc/arm-none-eabi/6.3.1/../../../../arm-none-eabi/lib/thumb/v7e-m/fpv4-sp/hard/libc.a(lib_a-strcmp.o)
 .bss           0x0000000020000c44        0x0 /home/tech/ti/ccsv7/tools/compiler/gcc-arm-none-eabi-6-2017-q1-update/bin/../lib/gcc/arm-none-eabi/6.3.1/../../../../arm-none-eabi/lib/thumb/v7e-m/fpv4-sp/hard/libc.a(lib_a-strlen.o)
 .bss           0x0000000020000c44        0x0 /home/tech/ti/ccsv7/tools/compiler/gcc-arm-none-eabi-6-2017-q1-update/bin/../lib/gcc/arm-none-eabi/6.3.1/../../../../arm-none-eabi/lib/thumb/v7e-m/fpv4-sp/hard/libc.a(lib_a-strncmp.o)
 .bss           0x0000000020000c44        0x0 /home/tech/ti/ccsv7/tools/compiler/gcc-arm-none-eabi-6-2017-q1-update/bin/../lib/gcc/arm-none-eabi/6.3.1/../../../../arm-none-eabi/lib/thumb/v7e-m/fpv4-sp/hard/libc.a(lib_a-svfiprintf.o)
 .bss           0x0000000020000c44        0x0 /home/tech/ti/ccsv7/tools/compiler/gcc-arm-none-eabi-6-2017-q1-update/bin/../lib/gcc/arm-none-eabi/6.3.1/../../../../arm-none-eabi/lib/thumb/v7e-m/fpv4-sp/hard/libc.a(lib_a-vfiprintf.o)
 .bss           0x0000000020000c44        0x0 /home/tech/ti/ccsv7/tools/compiler/gcc-arm-none-eabi-6-2017-q1-update/bin/../lib/gcc/arm-none-eabi/6.3.1/../../../../arm-none-eabi/lib/thumb/v7e-m/fpv4-sp/hard/libc.a(lib_a-wbuf.o)
 .bss           0x0000000020000c44        0x0 /home/tech/ti/ccsv7/tools/compiler/gcc-arm-none-eabi-6-2017-q1-update/bin/../lib/gcc/arm-none-eabi/6.3.1/../../../../arm-none-eabi/lib/thumb/v7e-m/fpv4-sp/hard/libc.a(lib_a-wctomb_r.o)
 .bss           0x0000000020000c44        0x0 /home/tech/ti/ccsv7/tools/compiler/gcc-arm-none-eabi-6-2017-q1-update/bin/../lib/gcc/arm-none-eabi/6.3.1/../../../../arm-none-eabi/lib/thumb/v7e-m/fpv4-sp/hard/libc.a(lib_a-writer.o)
 .bss           0x0000000020000c44        0x0 /home/tech/ti/ccsv7/tools/compiler/gcc-arm-none-eabi-6-2017-q1-update/bin/../lib/gcc/arm-none-eabi/6.3.1/../../../../arm-none-eabi/lib/thumb/v7e-m/fpv4-sp/hard/libc.a(lib_a-__atexit.o)
 .bss           0x0000000020000c44        0x0 /home/tech/ti/ccsv7/tools/compiler/gcc-arm-none-eabi-6-2017-q1-update/bin/../lib/gcc/arm-none-eabi/6.3.1/../../../../arm-none-eabi/lib/thumb/v7e-m/fpv4-sp/hard/libc.a(lib_a-callocr.o)
 .bss           0x0000000020000c44        0x0 /home/tech/ti/ccsv7/tools/compiler/gcc-arm-none-eabi-6-2017-q1-update/bin/../lib/gcc/arm-none-eabi/6.3.1/../../../../arm-none-eabi/lib/thumb/v7e-m/fpv4-sp/hard/libc.a(lib_a-closer.o)
 .bss           0x0000000020000c44        0x0 /home/tech/ti/ccsv7/tools/compiler/gcc-arm-none-eabi-6-2017-q1-update/bin/../lib/gcc/arm-none-eabi/6.3.1/../../../../arm-none-eabi/lib/thumb/v7e-m/fpv4-sp/hard/libc.a(lib_a-ctype_.o)
 .bss           0x0000000020000c44        0x0 /home/tech/ti/ccsv7/tools/compiler/gcc-arm-none-eabi-6-2017-q1-update/bin/../lib/gcc/arm-none-eabi/6.3.1/../../../../arm-none-eabi/lib/thumb/v7e-m/fpv4-sp/hard/libc.a(lib_a-fclose.o)
 .bss           0x0000000020000c44        0x0 /home/tech/ti/ccsv7/tools/compiler/gcc-arm-none-eabi-6-2017-q1-update/bin/../lib/gcc/arm-none-eabi/6.3.1/../../../../arm-none-eabi/lib/thumb/v7e-m/fpv4-sp/hard/libc.a(lib_a-fputwc.o)
 .bss           0x0000000020000c44        0x0 /home/tech/ti/ccsv7/tools/compiler/gcc-arm-none-eabi-6-2017-q1-update/bin/../lib/gcc/arm-none-eabi/6.3.1/../../../../arm-none-eabi/lib/thumb/v7e-m/fpv4-sp/hard/libc.a(lib_a-fstatr.o)
 .bss           0x0000000020000c44        0x0 /home/tech/ti/ccsv7/tools/compiler/gcc-arm-none-eabi-6-2017-q1-update/bin/../lib/gcc/arm-none-eabi/6.3.1/../../../../arm-none-eabi/lib/thumb/v7e-m/fpv4-sp/hard/libc.a(lib_a-fvwrite.o)
 .bss           0x0000000020000c44        0x0 /home/tech/ti/ccsv7/tools/compiler/gcc-arm-none-eabi-6-2017-q1-update/bin/../lib/gcc/arm-none-eabi/6.3.1/../../../../arm-none-eabi/lib/thumb/v7e-m/fpv4-sp/hard/libc.a(lib_a-isattyr.o)
 .bss           0x0000000020000c44        0x0 /home/tech/ti/ccsv7/tools/compiler/gcc-arm-none-eabi-6-2017-q1-update/bin/../lib/gcc/arm-none-eabi/6.3.1/../../../../arm-none-eabi/lib/thumb/v7e-m/fpv4-sp/hard/libc.a(lib_a-lseekr.o)
 .bss           0x0000000020000c44        0x0 /home/tech/ti/ccsv7/tools/compiler/gcc-arm-none-eabi-6-2017-q1-update/bin/../lib/gcc/arm-none-eabi/6.3.1/../../../../arm-none-eabi/lib/thumb/v7e-m/fpv4-sp/hard/libc.a(lib_a-memmove.o)
 .bss           0x0000000020000c44        0x0 /home/tech/ti/ccsv7/tools/compiler/gcc-arm-none-eabi-6-2017-q1-update/bin/../lib/gcc/arm-none-eabi/6.3.1/../../../../arm-none-eabi/lib/thumb/v7e-m/fpv4-sp/hard/libc.a(lib_a-readr.o)
 .bss           0x0000000020000c44        0x0 /home/tech/ti/ccsv7/tools/compiler/gcc-arm-none-eabi-6-2017-q1-update/bin/../lib/gcc/arm-none-eabi/6.3.1/../../../../arm-none-eabi/lib/thumb/v7e-m/fpv4-sp/hard/libc.a(lib_a-reallocr.o)
 .bss           0x0000000020000c44        0x0 /home/tech/ti/ccsv7/tools/compiler/gcc-arm-none-eabi-6-2017-q1-update/bin/../lib/gcc/arm-none-eabi/6.3.1/../../../../arm-none-eabi/lib/thumb/v7e-m/fpv4-sp/hard/libc.a(lib_a-reent.o)
 .bss           0x0000000020000c44        0x0 /home/tech/ti/ccsv7/tools/compiler/gcc-arm-none-eabi-6-2017-q1-update/bin/../lib/gcc/arm-none-eabi/6.3.1/../../../../arm-none-eabi/lib/thumb/v7e-m/fpv4-sp/hard/libc.a(lib_a-wcrtomb.o)
 .bss           0x0000000020000c44        0x0 /home/tech/ti/ccsv7/tools/compiler/gcc-arm-none-eabi-6-2017-q1-update/bin/../lib/gcc/arm-none-eabi/6.3.1/../../../../arm-none-eabi/lib/thumb/v7e-m/fpv4-sp/hard/librdimon.a(rdimon-syscalls.o)
 .bss           0x0000000020000c44        0x0 /home/tech/ti/ccsv7/tools/compiler/gcc-arm-none-eabi-6-2017-q1-update/bin/../lib/gcc/arm-none-eabi/6.3.1/../../../../arm-none-eabi/lib/thumb/v7e-m/fpv4-sp/hard/librdimon.a(rdimon-_exit.o)
 .bss           0x0000000020000c44        0x0 /home/tech/ti/ccsv7/tools/compiler/gcc-arm-none-eabi-6-2017-q1-update/bin/../lib/gcc/arm-none-eabi/6.3.1/../../../../arm-none-eabi/lib/thumb/v7e-m/fpv4-sp/hard/librdimon.a(rdimon-_kill.o)
 .bss           0x0000000020000c44        0x0 /home/tech/ti/ccsv7/tools/compiler/gcc-arm-none-eabi-6-2017-q1-update/bin/../lib/gcc/arm-none-eabi/6.3.1/../../../../arm-none-eabi/lib/thumb/v7e-m/fpv4-sp/hard/libc.a(lib_a-errno.o)
 .bss           0x0000000020000c44        0x0 /home/tech/ti/ccsv7/tools/compiler/gcc-arm-none-eabi-6-2017-q1-update/bin/../lib/gcc/arm-none-eabi/6.3.1/thumb/v7e-m/fpv4-sp/hard/libgcc.a(_arm_addsubdf3.o)
 .bss           0x0000000020000c44        0x0 /home/tech/ti/ccsv7/tools/compiler/gcc-arm-none-eabi-6-2017-q1-update/bin/../lib/gcc/arm-none-eabi/6.3.1/thumb/v7e-m/fpv4-sp/hard/libgcc.a(_arm_muldivdf3.o)
 .bss           0x0000000020000c44        0x0 /home/tech/ti/ccsv7/tools/compiler/gcc-arm-none-eabi-6-2017-q1-update/bin/../lib/gcc/arm-none-eabi/6.3.1/thumb/v7e-m/fpv4-sp/hard/libgcc.a(_arm_cmpdf2.o)
 .bss           0x0000000020000c44        0x0 /home/tech/ti/ccsv7/tools/compiler/gcc-arm-none-eabi-6-2017-q1-update/bin/../lib/gcc/arm-none-eabi/6.3.1/thumb/v7e-m/fpv4-sp/hard/libgcc.a(_arm_unorddf2.o)
 .bss           0x0000000020000c44        0x0 /home/tech/ti/ccsv7/tools/compiler/gcc-arm-none-eabi-6-2017-q1-update/bin/../lib/gcc/arm-none-eabi/6.3.1/thumb/v7e-m/fpv4-sp/hard/libgcc.a(_arm_fixdfsi.o)
 .bss           0x0000000020000c44        0x0 /home/tech/ti/ccsv7/tools/compiler/gcc-arm-none-eabi-6-2017-q1-update/bin/../lib/gcc/arm-none-eabi/6.3.1/thumb/v7e-m/fpv4-sp/hard/libgcc.a(_arm_fixunsdfsi.o)
 .bss           0x0000000020000c44        0x0 /home/tech/ti/ccsv7/tools/compiler/gcc-arm-none-eabi-6-2017-q1-update/bin/../lib/gcc/arm-none-eabi/6.3.1/thumb/v7e-m/fpv4-sp/hard/libgcc.a(_arm_truncdfsf2.o)
 .bss           0x0000000020000c44        0x0 /home/tech/ti/ccsv7/tools/compiler/gcc-arm-none-eabi-6-2017-q1-update/bin/../lib/gcc/arm-none-eabi/6.3.1/thumb/v7e-m/fpv4-sp/hard/libgcc.a(_aeabi_uldivmod.o)
 .bss           0x0000000020000c44        0x0 /home/tech/ti/ccsv7/tools/compiler/gcc-arm-none-eabi-6-2017-q1-update/bin/../lib/gcc/arm-none-eabi/6.3.1/thumb/v7e-m/fpv4-sp/hard/libgcc.a(_udivmoddi4.o)
 .bss           0x0000000020000c44        0x0 /home/tech/ti/ccsv7/tools/compiler/gcc-arm-none-eabi-6-2017-q1-update/bin/../lib/gcc/arm-none-eabi/6.3.1/thumb/v7e-m/fpv4-sp/hard/libgcc.a(_dvmd_tls.o)
 .bss           0x0000000020000c44        0x0 /home/tech/ti/ccsv7/tools/compiler/gcc-arm-none-eabi-6-2017-q1-update/bin/../lib/gcc/arm-none-eabi/6.3.1/thumb/v7e-m/fpv4-sp/hard/crtend.o
 .bss           0x0000000020000c44        0x0 /home/tech/ti/ccsv7/tools/compiler/gcc-arm-none-eabi-6-2017-q1-update/bin/../lib/gcc/arm-none-eabi/6.3.1/thumb/v7e-m/fpv4-sp/hard/crtn.o
 *(.bss.*)
 .bss.Dispx     0x0000000020000c44        0x4 ./main.o
                0x0000000020000c44                Dispx
 .bss.Dispy     0x0000000020000c48        0x4 ./main.o
                0x0000000020000c48                Dispy
 .bss.Dispz     0x0000000020000c4c        0x4 ./main.o
                0x0000000020000c4c                Dispz
 .bss.disp      0x0000000020000c50        0x4 ./main.o
                0x0000000020000c50                disp
 .bss.thetax    0x0000000020000c54        0x4 ./main.o
                0x0000000020000c54                thetax
 .bss.thetay    0x0000000020000c58        0x4 ./main.o
                0x0000000020000c58                thetay
 .bss.thetaz    0x0000000020000c5c        0x4 ./main.o
                0x0000000020000c5c                thetaz
 .bss.intdisp   0x0000000020000c60        0x4 ./main.o
                0x0000000020000c60                intdisp
 .bss.intthetax
                0x0000000020000c64        0x4 ./main.o
                0x0000000020000c64                intthetax
 .bss.intthetay
                0x0000000020000c68        0x4 ./main.o
                0x0000000020000c68                intthetay
 .bss.intthetaz
                0x0000000020000c6c        0x4 ./main.o
                0x0000000020000c6c                intthetaz
 .bss.GPS_pos_X
                0x0000000020000c70        0x4 ./main.o
                0x0000000020000c70                GPS_pos_X
 .bss.GPS_pos_Y
                0x0000000020000c74        0x4 ./main.o
                0x0000000020000c74                GPS_pos_Y
 .bss.GPS_pos_Z
                0x0000000020000c78        0x4 ./main.o
                0x0000000020000c78                GPS_pos_Z
 .bss.IsItGGAString
                0x0000000020000c7c        0x1 ./main.o
                0x0000000020000c7c                IsItGGAString
 *fill*         0x0000000020000c7d        0x3 
 .bss.pui32Stack
                0x0000000020000c80      0x200 ./tm4c123gh6pm_startup_ccs_gcc.o
 .bss._PathLocale
                0x0000000020000e80        0x4 /home/tech/ti/ccsv7/tools/compiler/gcc-arm-none-eabi-6-2017-q1-update/bin/../lib/gcc/arm-none-eabi/6.3.1/../../../../arm-none-eabi/lib/thumb/v7e-m/fpv4-sp/hard/libc.a(lib_a-locale.o)
                0x0000000020000e80                _PathLocale
 .bss.__malloc_current_mallinfo
                0x0000000020000e84       0x28 /home/tech/ti/ccsv7/tools/compiler/gcc-arm-none-eabi-6-2017-q1-update/bin/../lib/gcc/arm-none-eabi/6.3.1/../../../../arm-none-eabi/lib/thumb/v7e-m/fpv4-sp/hard/libc.a(lib_a-mallocr.o)
                0x0000000020000e84                __malloc_current_mallinfo
 .bss.__malloc_max_sbrked_mem
                0x0000000020000eac        0x4 /home/tech/ti/ccsv7/tools/compiler/gcc-arm-none-eabi-6-2017-q1-update/bin/../lib/gcc/arm-none-eabi/6.3.1/../../../../arm-none-eabi/lib/thumb/v7e-m/fpv4-sp/hard/libc.a(lib_a-mallocr.o)
                0x0000000020000eac                __malloc_max_sbrked_mem
 .bss.__malloc_max_total_mem
                0x0000000020000eb0        0x4 /home/tech/ti/ccsv7/tools/compiler/gcc-arm-none-eabi-6-2017-q1-update/bin/../lib/gcc/arm-none-eabi/6.3.1/../../../../arm-none-eabi/lib/thumb/v7e-m/fpv4-sp/hard/libc.a(lib_a-mallocr.o)
                0x0000000020000eb0                __malloc_max_total_mem
 .bss.__malloc_top_pad
                0x0000000020000eb4        0x4 /home/tech/ti/ccsv7/tools/compiler/gcc-arm-none-eabi-6-2017-q1-update/bin/../lib/gcc/arm-none-eabi/6.3.1/../../../../arm-none-eabi/lib/thumb/v7e-m/fpv4-sp/hard/libc.a(lib_a-mallocr.o)
                0x0000000020000eb4                __malloc_top_pad
 .bss.heap_end.7297
                0x0000000020000eb8        0x4 /home/tech/ti/ccsv7/tools/compiler/gcc-arm-none-eabi-6-2017-q1-update/bin/../lib/gcc/arm-none-eabi/6.3.1/../../../../arm-none-eabi/lib/thumb/v7e-m/fpv4-sp/hard/librdimon.a(rdimon-syscalls.o)
 .bss.monitor_stderr
                0x0000000020000ebc        0x4 /home/tech/ti/ccsv7/tools/compiler/gcc-arm-none-eabi-6-2017-q1-update/bin/../lib/gcc/arm-none-eabi/6.3.1/../../../../arm-none-eabi/lib/thumb/v7e-m/fpv4-sp/hard/librdimon.a(rdimon-syscalls.o)
 .bss.monitor_stdin
                0x0000000020000ec0        0x4 /home/tech/ti/ccsv7/tools/compiler/gcc-arm-none-eabi-6-2017-q1-update/bin/../lib/gcc/arm-none-eabi/6.3.1/../../../../arm-none-eabi/lib/thumb/v7e-m/fpv4-sp/hard/librdimon.a(rdimon-syscalls.o)
 .bss.monitor_stdout
                0x0000000020000ec4        0x4 /home/tech/ti/ccsv7/tools/compiler/gcc-arm-none-eabi-6-2017-q1-update/bin/../lib/gcc/arm-none-eabi/6.3.1/../../../../arm-none-eabi/lib/thumb/v7e-m/fpv4-sp/hard/librdimon.a(rdimon-syscalls.o)
 .bss.openfiles
                0x0000000020000ec8       0xa0 /home/tech/ti/ccsv7/tools/compiler/gcc-arm-none-eabi-6-2017-q1-update/bin/../lib/gcc/arm-none-eabi/6.3.1/../../../../arm-none-eabi/lib/thumb/v7e-m/fpv4-sp/hard/librdimon.a(rdimon-syscalls.o)
 *(COMMON)
 COMMON         0x0000000020000f68       0x9d ./main.o
                0x0000000020000f68                GGA_Buffer
                0x0000000020000fb8                zg
                0x0000000020000fbc                za
                0x0000000020000fc0                T
                0x0000000020000fc4                E_W
                0x0000000020000fc5                CommaCounter
                0x0000000020000fc8                GGA_Index
                0x0000000020000fcc                xa
                0x0000000020000fd0                GGA_CODE
                0x0000000020000fd4                GGA_Pointers
                0x0000000020000fe8                yg
                0x0000000020000fec                Data_Buffer
                0x0000000020000ffc                xg
                0x0000000020001000                ya
                0x0000000020001004                N_S
 *fill*         0x0000000020001005        0x3 
 COMMON         0x0000000020001008       0x21 /home/tech/ti/ccsv7/tools/compiler/gcc-arm-none-eabi-6-2017-q1-update/bin/../lib/gcc/arm-none-eabi/6.3.1/../../../../arm-none-eabi/lib/thumb/v7e-m/fpv4-sp/hard/libc.a(lib_a-lock.o)
                0x0000000020001008                __lock___atexit_recursive_mutex
                0x000000002000100c                __lock___arc4random_mutex
                0x0000000020001010                __lock___env_recursive_mutex
                0x0000000020001014                __lock___sinit_recursive_mutex
                0x0000000020001018                __lock___malloc_recursive_mutex
                0x000000002000101c                __lock___at_quick_exit_mutex
                0x0000000020001020                __lock___dd_hash_mutex
                0x0000000020001024                __lock___tz_mutex
                0x0000000020001028                __lock___sfp_recursive_mutex
 *fill*         0x0000000020001029        0x3 
 COMMON         0x000000002000102c        0x4 /home/tech/ti/ccsv7/tools/compiler/gcc-arm-none-eabi-6-2017-q1-update/bin/../lib/gcc/arm-none-eabi/6.3.1/../../../../arm-none-eabi/lib/thumb/v7e-m/fpv4-sp/hard/libc.a(lib_a-reent.o)
                0x000000002000102c                errno
                0x0000000020001030                . = ALIGN (0x4)
                0x0000000020001030                __bss_end__ = .

.heap           0x0000000020001030        0x0
                0x0000000020001030                __heap_start__ = .
                0x0000000020001030                end = __heap_start__
                0x0000000020001030                _end = end
                0x0000000020001030                __end = end
 *(.heap)
                0x0000000020001030                __heap_end__ = .
                0x0000000020001030                __HeapLimit = __heap_end__

.stack          0x0000000020001030        0x0
                0x0000000020001030                _stack = .
                0x0000000020001030                __stack = .
 *(.stack)
LOAD ../ccs/Debug/driverlib.lib
LOAD ../rvmdk/driverlib.lib
START GROUP
LOAD /home/tech/ti/ccsv7/tools/compiler/gcc-arm-none-eabi-6-2017-q1-update/bin/../lib/gcc/arm-none-eabi/6.3.1/../../../../arm-none-eabi/lib/thumb/v7e-m/fpv4-sp/hard/libc.a
LOAD /home/tech/ti/ccsv7/tools/compiler/gcc-arm-none-eabi-6-2017-q1-update/bin/../lib/gcc/arm-none-eabi/6.3.1/../../../../arm-none-eabi/lib/thumb/v7e-m/fpv4-sp/hard/librdimon.a
END GROUP
LOAD ../ewarm/Exe/driverlib.a
LOAD ../gcc/libdriver.a
START GROUP
LOAD /home/tech/ti/ccsv7/tools/compiler/gcc-arm-none-eabi-6-2017-q1-update/bin/../lib/gcc/arm-none-eabi/6.3.1/thumb/v7e-m/fpv4-sp/hard/libgcc.a
LOAD /home/tech/ti/ccsv7/tools/compiler/gcc-arm-none-eabi-6-2017-q1-update/bin/../lib/gcc/arm-none-eabi/6.3.1/../../../../arm-none-eabi/lib/thumb/v7e-m/fpv4-sp/hard/libg.a
LOAD /home/tech/ti/ccsv7/tools/compiler/gcc-arm-none-eabi-6-2017-q1-update/bin/../lib/gcc/arm-none-eabi/6.3.1/../../../../arm-none-eabi/lib/thumb/v7e-m/fpv4-sp/hard/libc.a
END GROUP
START GROUP
LOAD /home/tech/ti/ccsv7/tools/compiler/gcc-arm-none-eabi-6-2017-q1-update/bin/../lib/gcc/arm-none-eabi/6.3.1/thumb/v7e-m/fpv4-sp/hard/libgcc.a
LOAD /home/tech/ti/ccsv7/tools/compiler/gcc-arm-none-eabi-6-2017-q1-update/bin/../lib/gcc/arm-none-eabi/6.3.1/../../../../arm-none-eabi/lib/thumb/v7e-m/fpv4-sp/hard/libc.a
LOAD /home/tech/ti/ccsv7/tools/compiler/gcc-arm-none-eabi-6-2017-q1-update/bin/../lib/gcc/arm-none-eabi/6.3.1/../../../../arm-none-eabi/lib/thumb/v7e-m/fpv4-sp/hard/libnosys.a
END GROUP
LOAD /home/tech/ti/ccsv7/tools/compiler/gcc-arm-none-eabi-6-2017-q1-update/bin/../lib/gcc/arm-none-eabi/6.3.1/thumb/v7e-m/fpv4-sp/hard/crtend.o
LOAD /home/tech/ti/ccsv7/tools/compiler/gcc-arm-none-eabi-6-2017-q1-update/bin/../lib/gcc/arm-none-eabi/6.3.1/thumb/v7e-m/fpv4-sp/hard/crtn.o
OUTPUT(embedded_project_trial.out elf32-littlearm)

.ARM.attributes
                0x0000000000000000       0x30
 .ARM.attributes
                0x0000000000000000       0x22 /home/tech/ti/ccsv7/tools/compiler/gcc-arm-none-eabi-6-2017-q1-update/bin/../lib/gcc/arm-none-eabi/6.3.1/thumb/v7e-m/fpv4-sp/hard/crti.o
 .ARM.attributes
                0x0000000000000022       0x34 /home/tech/ti/ccsv7/tools/compiler/gcc-arm-none-eabi-6-2017-q1-update/bin/../lib/gcc/arm-none-eabi/6.3.1/thumb/v7e-m/fpv4-sp/hard/crtbegin.o
 .ARM.attributes
                0x0000000000000056       0x20 /home/tech/ti/ccsv7/tools/compiler/gcc-arm-none-eabi-6-2017-q1-update/bin/../lib/gcc/arm-none-eabi/6.3.1/../../../../arm-none-eabi/lib/thumb/v7e-m/fpv4-sp/hard/crt0.o
 .ARM.attributes
                0x0000000000000076       0x39 ./main.o
 .ARM.attributes
                0x00000000000000af       0x39 ./tm4c123gh6pm_startup_ccs_gcc.o
 .ARM.attributes
                0x00000000000000e8       0xa7 ../ccs/Debug/driverlib.lib(gpio.obj)
 .ARM.attributes
                0x000000000000018f       0xa7 ../ccs/Debug/driverlib.lib(i2c.obj)
 .ARM.attributes
                0x0000000000000236       0xa7 ../ccs/Debug/driverlib.lib(interrupt.obj)
 .ARM.attributes
                0x00000000000002dd       0xa7 ../ccs/Debug/driverlib.lib(sysctl.obj)
 .ARM.attributes
                0x0000000000000384       0xa7 ../ccs/Debug/driverlib.lib(cpu.obj)
 .ARM.attributes
                0x000000000000042b       0x34 /home/tech/ti/ccsv7/tools/compiler/gcc-arm-none-eabi-6-2017-q1-update/bin/../lib/gcc/arm-none-eabi/6.3.1/../../../../arm-none-eabi/lib/thumb/v7e-m/fpv4-sp/hard/libc.a(lib_a-atof.o)
 .ARM.attributes
                0x000000000000045f       0x34 /home/tech/ti/ccsv7/tools/compiler/gcc-arm-none-eabi-6-2017-q1-update/bin/../lib/gcc/arm-none-eabi/6.3.1/../../../../arm-none-eabi/lib/thumb/v7e-m/fpv4-sp/hard/libc.a(lib_a-atol.o)
 .ARM.attributes
                0x0000000000000493       0x34 /home/tech/ti/ccsv7/tools/compiler/gcc-arm-none-eabi-6-2017-q1-update/bin/../lib/gcc/arm-none-eabi/6.3.1/../../../../arm-none-eabi/lib/thumb/v7e-m/fpv4-sp/hard/libc.a(lib_a-exit.o)
 .ARM.attributes
                0x00000000000004c7       0x34 /home/tech/ti/ccsv7/tools/compiler/gcc-arm-none-eabi-6-2017-q1-update/bin/../lib/gcc/arm-none-eabi/6.3.1/../../../../arm-none-eabi/lib/thumb/v7e-m/fpv4-sp/hard/libc.a(lib_a-impure.o)
 .ARM.attributes
                0x00000000000004fb       0x34 /home/tech/ti/ccsv7/tools/compiler/gcc-arm-none-eabi-6-2017-q1-update/bin/../lib/gcc/arm-none-eabi/6.3.1/../../../../arm-none-eabi/lib/thumb/v7e-m/fpv4-sp/hard/libc.a(lib_a-init.o)
 .ARM.attributes
                0x000000000000052f       0x34 /home/tech/ti/ccsv7/tools/compiler/gcc-arm-none-eabi-6-2017-q1-update/bin/../lib/gcc/arm-none-eabi/6.3.1/../../../../arm-none-eabi/lib/thumb/v7e-m/fpv4-sp/hard/libc.a(lib_a-memset.o)
 .ARM.attributes
                0x0000000000000563       0x34 /home/tech/ti/ccsv7/tools/compiler/gcc-arm-none-eabi-6-2017-q1-update/bin/../lib/gcc/arm-none-eabi/6.3.1/../../../../arm-none-eabi/lib/thumb/v7e-m/fpv4-sp/hard/libc.a(lib_a-printf.o)
 .ARM.attributes
                0x0000000000000597       0x34 /home/tech/ti/ccsv7/tools/compiler/gcc-arm-none-eabi-6-2017-q1-update/bin/../lib/gcc/arm-none-eabi/6.3.1/../../../../arm-none-eabi/lib/thumb/v7e-m/fpv4-sp/hard/libc.a(lib_a-putchar.o)
 .ARM.attributes
                0x00000000000005cb       0x34 /home/tech/ti/ccsv7/tools/compiler/gcc-arm-none-eabi-6-2017-q1-update/bin/../lib/gcc/arm-none-eabi/6.3.1/../../../../arm-none-eabi/lib/thumb/v7e-m/fpv4-sp/hard/libc.a(lib_a-sprintf.o)
 .ARM.attributes
                0x00000000000005ff       0x34 /home/tech/ti/ccsv7/tools/compiler/gcc-arm-none-eabi-6-2017-q1-update/bin/../lib/gcc/arm-none-eabi/6.3.1/../../../../arm-none-eabi/lib/thumb/v7e-m/fpv4-sp/hard/libc.a(lib_a-strtod.o)
 .ARM.attributes
                0x0000000000000633       0x34 /home/tech/ti/ccsv7/tools/compiler/gcc-arm-none-eabi-6-2017-q1-update/bin/../lib/gcc/arm-none-eabi/6.3.1/../../../../arm-none-eabi/lib/thumb/v7e-m/fpv4-sp/hard/libc.a(lib_a-strtol.o)
 .ARM.attributes
                0x0000000000000667       0x34 /home/tech/ti/ccsv7/tools/compiler/gcc-arm-none-eabi-6-2017-q1-update/bin/../lib/gcc/arm-none-eabi/6.3.1/../../../../arm-none-eabi/lib/thumb/v7e-m/fpv4-sp/hard/libc.a(lib_a-svfprintf.o)
 .ARM.attributes
                0x000000000000069b       0x34 /home/tech/ti/ccsv7/tools/compiler/gcc-arm-none-eabi-6-2017-q1-update/bin/../lib/gcc/arm-none-eabi/6.3.1/../../../../arm-none-eabi/lib/thumb/v7e-m/fpv4-sp/hard/libc.a(lib_a-vfprintf.o)
 .ARM.attributes
                0x00000000000006cf       0x34 /home/tech/ti/ccsv7/tools/compiler/gcc-arm-none-eabi-6-2017-q1-update/bin/../lib/gcc/arm-none-eabi/6.3.1/../../../../arm-none-eabi/lib/thumb/v7e-m/fpv4-sp/hard/libc.a(lib_a-wsetup.o)
 .ARM.attributes
                0x0000000000000703       0x34 /home/tech/ti/ccsv7/tools/compiler/gcc-arm-none-eabi-6-2017-q1-update/bin/../lib/gcc/arm-none-eabi/6.3.1/../../../../arm-none-eabi/lib/thumb/v7e-m/fpv4-sp/hard/libc.a(lib_a-__call_atexit.o)
 .ARM.attributes
                0x0000000000000737       0x34 /home/tech/ti/ccsv7/tools/compiler/gcc-arm-none-eabi-6-2017-q1-update/bin/../lib/gcc/arm-none-eabi/6.3.1/../../../../arm-none-eabi/lib/thumb/v7e-m/fpv4-sp/hard/libc.a(lib_a-atexit.o)
 .ARM.attributes
                0x000000000000076b       0x34 /home/tech/ti/ccsv7/tools/compiler/gcc-arm-none-eabi-6-2017-q1-update/bin/../lib/gcc/arm-none-eabi/6.3.1/../../../../arm-none-eabi/lib/thumb/v7e-m/fpv4-sp/hard/libc.a(lib_a-dtoa.o)
 .ARM.attributes
                0x000000000000079f       0x34 /home/tech/ti/ccsv7/tools/compiler/gcc-arm-none-eabi-6-2017-q1-update/bin/../lib/gcc/arm-none-eabi/6.3.1/../../../../arm-none-eabi/lib/thumb/v7e-m/fpv4-sp/hard/libc.a(lib_a-fflush.o)
 .ARM.attributes
                0x00000000000007d3       0x34 /home/tech/ti/ccsv7/tools/compiler/gcc-arm-none-eabi-6-2017-q1-update/bin/../lib/gcc/arm-none-eabi/6.3.1/../../../../arm-none-eabi/lib/thumb/v7e-m/fpv4-sp/hard/libc.a(lib_a-findfp.o)
 .ARM.attributes
                0x0000000000000807       0x34 /home/tech/ti/ccsv7/tools/compiler/gcc-arm-none-eabi-6-2017-q1-update/bin/../lib/gcc/arm-none-eabi/6.3.1/../../../../arm-none-eabi/lib/thumb/v7e-m/fpv4-sp/hard/libc.a(lib_a-fini.o)
 .ARM.attributes
                0x000000000000083b       0x34 /home/tech/ti/ccsv7/tools/compiler/gcc-arm-none-eabi-6-2017-q1-update/bin/../lib/gcc/arm-none-eabi/6.3.1/../../../../arm-none-eabi/lib/thumb/v7e-m/fpv4-sp/hard/libc.a(lib_a-freer.o)
 .ARM.attributes
                0x000000000000086f       0x34 /home/tech/ti/ccsv7/tools/compiler/gcc-arm-none-eabi-6-2017-q1-update/bin/../lib/gcc/arm-none-eabi/6.3.1/../../../../arm-none-eabi/lib/thumb/v7e-m/fpv4-sp/hard/libc.a(lib_a-fwalk.o)
 .ARM.attributes
                0x00000000000008a3       0x34 /home/tech/ti/ccsv7/tools/compiler/gcc-arm-none-eabi-6-2017-q1-update/bin/../lib/gcc/arm-none-eabi/6.3.1/../../../../arm-none-eabi/lib/thumb/v7e-m/fpv4-sp/hard/libc.a(lib_a-gdtoa-gethex.o)
 .ARM.attributes
                0x00000000000008d7       0x34 /home/tech/ti/ccsv7/tools/compiler/gcc-arm-none-eabi-6-2017-q1-update/bin/../lib/gcc/arm-none-eabi/6.3.1/../../../../arm-none-eabi/lib/thumb/v7e-m/fpv4-sp/hard/libc.a(lib_a-gdtoa-hexnan.o)
 .ARM.attributes
                0x000000000000090b       0x34 /home/tech/ti/ccsv7/tools/compiler/gcc-arm-none-eabi-6-2017-q1-update/bin/../lib/gcc/arm-none-eabi/6.3.1/../../../../arm-none-eabi/lib/thumb/v7e-m/fpv4-sp/hard/libc.a(lib_a-locale.o)
 .ARM.attributes
                0x000000000000093f       0x34 /home/tech/ti/ccsv7/tools/compiler/gcc-arm-none-eabi-6-2017-q1-update/bin/../lib/gcc/arm-none-eabi/6.3.1/../../../../arm-none-eabi/lib/thumb/v7e-m/fpv4-sp/hard/libc.a(lib_a-localeconv.o)
 .ARM.attributes
                0x0000000000000973       0x34 /home/tech/ti/ccsv7/tools/compiler/gcc-arm-none-eabi-6-2017-q1-update/bin/../lib/gcc/arm-none-eabi/6.3.1/../../../../arm-none-eabi/lib/thumb/v7e-m/fpv4-sp/hard/libc.a(lib_a-lock.o)
 .ARM.attributes
                0x00000000000009a7       0x34 /home/tech/ti/ccsv7/tools/compiler/gcc-arm-none-eabi-6-2017-q1-update/bin/../lib/gcc/arm-none-eabi/6.3.1/../../../../arm-none-eabi/lib/thumb/v7e-m/fpv4-sp/hard/libc.a(lib_a-makebuf.o)
 .ARM.attributes
                0x00000000000009db       0x34 /home/tech/ti/ccsv7/tools/compiler/gcc-arm-none-eabi-6-2017-q1-update/bin/../lib/gcc/arm-none-eabi/6.3.1/../../../../arm-none-eabi/lib/thumb/v7e-m/fpv4-sp/hard/libc.a(lib_a-mallocr.o)
 .ARM.attributes
                0x0000000000000a0f       0x34 /home/tech/ti/ccsv7/tools/compiler/gcc-arm-none-eabi-6-2017-q1-update/bin/../lib/gcc/arm-none-eabi/6.3.1/../../../../arm-none-eabi/lib/thumb/v7e-m/fpv4-sp/hard/libc.a(lib_a-mbtowc_r.o)
 .ARM.attributes
                0x0000000000000a43       0x20 /home/tech/ti/ccsv7/tools/compiler/gcc-arm-none-eabi-6-2017-q1-update/bin/../lib/gcc/arm-none-eabi/6.3.1/../../../../arm-none-eabi/lib/thumb/v7e-m/fpv4-sp/hard/libc.a(lib_a-memchr.o)
 .ARM.attributes
                0x0000000000000a63       0x20 /home/tech/ti/ccsv7/tools/compiler/gcc-arm-none-eabi-6-2017-q1-update/bin/../lib/gcc/arm-none-eabi/6.3.1/../../../../arm-none-eabi/lib/thumb/v7e-m/fpv4-sp/hard/libc.a(lib_a-memcpy.o)
 .ARM.attributes
                0x0000000000000a83       0x34 /home/tech/ti/ccsv7/tools/compiler/gcc-arm-none-eabi-6-2017-q1-update/bin/../lib/gcc/arm-none-eabi/6.3.1/../../../../arm-none-eabi/lib/thumb/v7e-m/fpv4-sp/hard/libc.a(lib_a-mlock.o)
 .ARM.attributes
                0x0000000000000ab7       0x34 /home/tech/ti/ccsv7/tools/compiler/gcc-arm-none-eabi-6-2017-q1-update/bin/../lib/gcc/arm-none-eabi/6.3.1/../../../../arm-none-eabi/lib/thumb/v7e-m/fpv4-sp/hard/libc.a(lib_a-mprec.o)
 .ARM.attributes
                0x0000000000000aeb       0x34 /home/tech/ti/ccsv7/tools/compiler/gcc-arm-none-eabi-6-2017-q1-update/bin/../lib/gcc/arm-none-eabi/6.3.1/../../../../arm-none-eabi/lib/thumb/v7e-m/fpv4-sp/hard/libc.a(lib_a-putc.o)
 .ARM.attributes
                0x0000000000000b1f       0x34 /home/tech/ti/ccsv7/tools/compiler/gcc-arm-none-eabi-6-2017-q1-update/bin/../lib/gcc/arm-none-eabi/6.3.1/../../../../arm-none-eabi/lib/thumb/v7e-m/fpv4-sp/hard/libc.a(lib_a-sbrkr.o)
 .ARM.attributes
                0x0000000000000b53       0x34 /home/tech/ti/ccsv7/tools/compiler/gcc-arm-none-eabi-6-2017-q1-update/bin/../lib/gcc/arm-none-eabi/6.3.1/../../../../arm-none-eabi/lib/thumb/v7e-m/fpv4-sp/hard/libc.a(lib_a-sf_nan.o)
 .ARM.attributes
                0x0000000000000b87       0x34 /home/tech/ti/ccsv7/tools/compiler/gcc-arm-none-eabi-6-2017-q1-update/bin/../lib/gcc/arm-none-eabi/6.3.1/../../../../arm-none-eabi/lib/thumb/v7e-m/fpv4-sp/hard/libc.a(lib_a-stdio.o)
 .ARM.attributes
                0x0000000000000bbb       0x20 /home/tech/ti/ccsv7/tools/compiler/gcc-arm-none-eabi-6-2017-q1-update/bin/../lib/gcc/arm-none-eabi/6.3.1/../../../../arm-none-eabi/lib/thumb/v7e-m/fpv4-sp/hard/libc.a(lib_a-strcmp.o)
 .ARM.attributes
                0x0000000000000bdb       0x20 /home/tech/ti/ccsv7/tools/compiler/gcc-arm-none-eabi-6-2017-q1-update/bin/../lib/gcc/arm-none-eabi/6.3.1/../../../../arm-none-eabi/lib/thumb/v7e-m/fpv4-sp/hard/libc.a(lib_a-strlen.o)
 .ARM.attributes
                0x0000000000000bfb       0x34 /home/tech/ti/ccsv7/tools/compiler/gcc-arm-none-eabi-6-2017-q1-update/bin/../lib/gcc/arm-none-eabi/6.3.1/../../../../arm-none-eabi/lib/thumb/v7e-m/fpv4-sp/hard/libc.a(lib_a-strncmp.o)
 .ARM.attributes
                0x0000000000000c2f       0x34 /home/tech/ti/ccsv7/tools/compiler/gcc-arm-none-eabi-6-2017-q1-update/bin/../lib/gcc/arm-none-eabi/6.3.1/../../../../arm-none-eabi/lib/thumb/v7e-m/fpv4-sp/hard/libc.a(lib_a-svfiprintf.o)
 .ARM.attributes
                0x0000000000000c63       0x34 /home/tech/ti/ccsv7/tools/compiler/gcc-arm-none-eabi-6-2017-q1-update/bin/../lib/gcc/arm-none-eabi/6.3.1/../../../../arm-none-eabi/lib/thumb/v7e-m/fpv4-sp/hard/libc.a(lib_a-vfiprintf.o)
 .ARM.attributes
                0x0000000000000c97       0x34 /home/tech/ti/ccsv7/tools/compiler/gcc-arm-none-eabi-6-2017-q1-update/bin/../lib/gcc/arm-none-eabi/6.3.1/../../../../arm-none-eabi/lib/thumb/v7e-m/fpv4-sp/hard/libc.a(lib_a-wbuf.o)
 .ARM.attributes
                0x0000000000000ccb       0x34 /home/tech/ti/ccsv7/tools/compiler/gcc-arm-none-eabi-6-2017-q1-update/bin/../lib/gcc/arm-none-eabi/6.3.1/../../../../arm-none-eabi/lib/thumb/v7e-m/fpv4-sp/hard/libc.a(lib_a-wctomb_r.o)
 .ARM.attributes
                0x0000000000000cff       0x34 /home/tech/ti/ccsv7/tools/compiler/gcc-arm-none-eabi-6-2017-q1-update/bin/../lib/gcc/arm-none-eabi/6.3.1/../../../../arm-none-eabi/lib/thumb/v7e-m/fpv4-sp/hard/libc.a(lib_a-writer.o)
 .ARM.attributes
                0x0000000000000d33       0x34 /home/tech/ti/ccsv7/tools/compiler/gcc-arm-none-eabi-6-2017-q1-update/bin/../lib/gcc/arm-none-eabi/6.3.1/../../../../arm-none-eabi/lib/thumb/v7e-m/fpv4-sp/hard/libc.a(lib_a-__atexit.o)
 .ARM.attributes
                0x0000000000000d67       0x34 /home/tech/ti/ccsv7/tools/compiler/gcc-arm-none-eabi-6-2017-q1-update/bin/../lib/gcc/arm-none-eabi/6.3.1/../../../../arm-none-eabi/lib/thumb/v7e-m/fpv4-sp/hard/libc.a(lib_a-callocr.o)
 .ARM.attributes
                0x0000000000000d9b       0x34 /home/tech/ti/ccsv7/tools/compiler/gcc-arm-none-eabi-6-2017-q1-update/bin/../lib/gcc/arm-none-eabi/6.3.1/../../../../arm-none-eabi/lib/thumb/v7e-m/fpv4-sp/hard/libc.a(lib_a-closer.o)
 .ARM.attributes
                0x0000000000000dcf       0x34 /home/tech/ti/ccsv7/tools/compiler/gcc-arm-none-eabi-6-2017-q1-update/bin/../lib/gcc/arm-none-eabi/6.3.1/../../../../arm-none-eabi/lib/thumb/v7e-m/fpv4-sp/hard/libc.a(lib_a-ctype_.o)
 .ARM.attributes
                0x0000000000000e03       0x34 /home/tech/ti/ccsv7/tools/compiler/gcc-arm-none-eabi-6-2017-q1-update/bin/../lib/gcc/arm-none-eabi/6.3.1/../../../../arm-none-eabi/lib/thumb/v7e-m/fpv4-sp/hard/libc.a(lib_a-fclose.o)
 .ARM.attributes
                0x0000000000000e37       0x34 /home/tech/ti/ccsv7/tools/compiler/gcc-arm-none-eabi-6-2017-q1-update/bin/../lib/gcc/arm-none-eabi/6.3.1/../../../../arm-none-eabi/lib/thumb/v7e-m/fpv4-sp/hard/libc.a(lib_a-fputwc.o)
 .ARM.attributes
                0x0000000000000e6b       0x34 /home/tech/ti/ccsv7/tools/compiler/gcc-arm-none-eabi-6-2017-q1-update/bin/../lib/gcc/arm-none-eabi/6.3.1/../../../../arm-none-eabi/lib/thumb/v7e-m/fpv4-sp/hard/libc.a(lib_a-fstatr.o)
 .ARM.attributes
                0x0000000000000e9f       0x34 /home/tech/ti/ccsv7/tools/compiler/gcc-arm-none-eabi-6-2017-q1-update/bin/../lib/gcc/arm-none-eabi/6.3.1/../../../../arm-none-eabi/lib/thumb/v7e-m/fpv4-sp/hard/libc.a(lib_a-fvwrite.o)
 .ARM.attributes
                0x0000000000000ed3       0x34 /home/tech/ti/ccsv7/tools/compiler/gcc-arm-none-eabi-6-2017-q1-update/bin/../lib/gcc/arm-none-eabi/6.3.1/../../../../arm-none-eabi/lib/thumb/v7e-m/fpv4-sp/hard/libc.a(lib_a-isattyr.o)
 .ARM.attributes
                0x0000000000000f07       0x34 /home/tech/ti/ccsv7/tools/compiler/gcc-arm-none-eabi-6-2017-q1-update/bin/../lib/gcc/arm-none-eabi/6.3.1/../../../../arm-none-eabi/lib/thumb/v7e-m/fpv4-sp/hard/libc.a(lib_a-lseekr.o)
 .ARM.attributes
                0x0000000000000f3b       0x34 /home/tech/ti/ccsv7/tools/compiler/gcc-arm-none-eabi-6-2017-q1-update/bin/../lib/gcc/arm-none-eabi/6.3.1/../../../../arm-none-eabi/lib/thumb/v7e-m/fpv4-sp/hard/libc.a(lib_a-memmove.o)
 .ARM.attributes
                0x0000000000000f6f       0x34 /home/tech/ti/ccsv7/tools/compiler/gcc-arm-none-eabi-6-2017-q1-update/bin/../lib/gcc/arm-none-eabi/6.3.1/../../../../arm-none-eabi/lib/thumb/v7e-m/fpv4-sp/hard/libc.a(lib_a-readr.o)
 .ARM.attributes
                0x0000000000000fa3       0x34 /home/tech/ti/ccsv7/tools/compiler/gcc-arm-none-eabi-6-2017-q1-update/bin/../lib/gcc/arm-none-eabi/6.3.1/../../../../arm-none-eabi/lib/thumb/v7e-m/fpv4-sp/hard/libc.a(lib_a-reallocr.o)
 .ARM.attributes
                0x0000000000000fd7       0x34 /home/tech/ti/ccsv7/tools/compiler/gcc-arm-none-eabi-6-2017-q1-update/bin/../lib/gcc/arm-none-eabi/6.3.1/../../../../arm-none-eabi/lib/thumb/v7e-m/fpv4-sp/hard/libc.a(lib_a-reent.o)
 .ARM.attributes
                0x000000000000100b       0x34 /home/tech/ti/ccsv7/tools/compiler/gcc-arm-none-eabi-6-2017-q1-update/bin/../lib/gcc/arm-none-eabi/6.3.1/../../../../arm-none-eabi/lib/thumb/v7e-m/fpv4-sp/hard/libc.a(lib_a-wcrtomb.o)
 .ARM.attributes
                0x000000000000103f       0x34 /home/tech/ti/ccsv7/tools/compiler/gcc-arm-none-eabi-6-2017-q1-update/bin/../lib/gcc/arm-none-eabi/6.3.1/../../../../arm-none-eabi/lib/thumb/v7e-m/fpv4-sp/hard/librdimon.a(rdimon-syscalls.o)
 .ARM.attributes
                0x0000000000001073       0x34 /home/tech/ti/ccsv7/tools/compiler/gcc-arm-none-eabi-6-2017-q1-update/bin/../lib/gcc/arm-none-eabi/6.3.1/../../../../arm-none-eabi/lib/thumb/v7e-m/fpv4-sp/hard/librdimon.a(rdimon-_exit.o)
 .ARM.attributes
                0x00000000000010a7       0x34 /home/tech/ti/ccsv7/tools/compiler/gcc-arm-none-eabi-6-2017-q1-update/bin/../lib/gcc/arm-none-eabi/6.3.1/../../../../arm-none-eabi/lib/thumb/v7e-m/fpv4-sp/hard/librdimon.a(rdimon-_kill.o)
 .ARM.attributes
                0x00000000000010db       0x34 /home/tech/ti/ccsv7/tools/compiler/gcc-arm-none-eabi-6-2017-q1-update/bin/../lib/gcc/arm-none-eabi/6.3.1/../../../../arm-none-eabi/lib/thumb/v7e-m/fpv4-sp/hard/libc.a(lib_a-errno.o)
 .ARM.attributes
                0x000000000000110f       0x22 /home/tech/ti/ccsv7/tools/compiler/gcc-arm-none-eabi-6-2017-q1-update/bin/../lib/gcc/arm-none-eabi/6.3.1/thumb/v7e-m/fpv4-sp/hard/libgcc.a(_arm_addsubdf3.o)
 .ARM.attributes
                0x0000000000001131       0x22 /home/tech/ti/ccsv7/tools/compiler/gcc-arm-none-eabi-6-2017-q1-update/bin/../lib/gcc/arm-none-eabi/6.3.1/thumb/v7e-m/fpv4-sp/hard/libgcc.a(_arm_muldivdf3.o)
 .ARM.attributes
                0x0000000000001153       0x22 /home/tech/ti/ccsv7/tools/compiler/gcc-arm-none-eabi-6-2017-q1-update/bin/../lib/gcc/arm-none-eabi/6.3.1/thumb/v7e-m/fpv4-sp/hard/libgcc.a(_arm_cmpdf2.o)
 .ARM.attributes
                0x0000000000001175       0x22 /home/tech/ti/ccsv7/tools/compiler/gcc-arm-none-eabi-6-2017-q1-update/bin/../lib/gcc/arm-none-eabi/6.3.1/thumb/v7e-m/fpv4-sp/hard/libgcc.a(_arm_unorddf2.o)
 .ARM.attributes
                0x0000000000001197       0x22 /home/tech/ti/ccsv7/tools/compiler/gcc-arm-none-eabi-6-2017-q1-update/bin/../lib/gcc/arm-none-eabi/6.3.1/thumb/v7e-m/fpv4-sp/hard/libgcc.a(_arm_fixdfsi.o)
 .ARM.attributes
                0x00000000000011b9       0x22 /home/tech/ti/ccsv7/tools/compiler/gcc-arm-none-eabi-6-2017-q1-update/bin/../lib/gcc/arm-none-eabi/6.3.1/thumb/v7e-m/fpv4-sp/hard/libgcc.a(_arm_fixunsdfsi.o)
 .ARM.attributes
                0x00000000000011db       0x22 /home/tech/ti/ccsv7/tools/compiler/gcc-arm-none-eabi-6-2017-q1-update/bin/../lib/gcc/arm-none-eabi/6.3.1/thumb/v7e-m/fpv4-sp/hard/libgcc.a(_arm_truncdfsf2.o)
 .ARM.attributes
                0x00000000000011fd       0x22 /home/tech/ti/ccsv7/tools/compiler/gcc-arm-none-eabi-6-2017-q1-update/bin/../lib/gcc/arm-none-eabi/6.3.1/thumb/v7e-m/fpv4-sp/hard/libgcc.a(_aeabi_uldivmod.o)
 .ARM.attributes
                0x000000000000121f       0x34 /home/tech/ti/ccsv7/tools/compiler/gcc-arm-none-eabi-6-2017-q1-update/bin/../lib/gcc/arm-none-eabi/6.3.1/thumb/v7e-m/fpv4-sp/hard/libgcc.a(_udivmoddi4.o)
 .ARM.attributes
                0x0000000000001253       0x22 /home/tech/ti/ccsv7/tools/compiler/gcc-arm-none-eabi-6-2017-q1-update/bin/../lib/gcc/arm-none-eabi/6.3.1/thumb/v7e-m/fpv4-sp/hard/libgcc.a(_dvmd_tls.o)
 .ARM.attributes
                0x0000000000001275       0x34 /home/tech/ti/ccsv7/tools/compiler/gcc-arm-none-eabi-6-2017-q1-update/bin/../lib/gcc/arm-none-eabi/6.3.1/thumb/v7e-m/fpv4-sp/hard/crtend.o
 .ARM.attributes
                0x00000000000012a9       0x22 /home/tech/ti/ccsv7/tools/compiler/gcc-arm-none-eabi-6-2017-q1-update/bin/../lib/gcc/arm-none-eabi/6.3.1/thumb/v7e-m/fpv4-sp/hard/crtn.o

.comment        0x0000000000000000       0x7f
 .comment       0x0000000000000000       0x7f ./main.o
                                         0x80 (size before relaxing)
 .comment       0x000000000000007f       0x80 ./tm4c123gh6pm_startup_ccs_gcc.o

.TI.symbol.alias
                0x0000000000000000       0x45
 .TI.symbol.alias
                0x0000000000000000        0x9 ../ccs/Debug/driverlib.lib(gpio.obj)
 .TI.symbol.alias
                0x0000000000000009        0x9 ../ccs/Debug/driverlib.lib(i2c.obj)
 .TI.symbol.alias
                0x0000000000000012       0x19 ../ccs/Debug/driverlib.lib(interrupt.obj)
 .TI.symbol.alias
                0x000000000000002b       0x11 ../ccs/Debug/driverlib.lib(sysctl.obj)
 .TI.symbol.alias
                0x000000000000003c        0x9 ../ccs/Debug/driverlib.lib(cpu.obj)

.TI.section.flags
                0x0000000000000000       0x82
 .TI.section.flags
                0x0000000000000000       0x1a ../ccs/Debug/driverlib.lib(gpio.obj)
 .TI.section.flags
                0x000000000000001a       0x1a ../ccs/Debug/driverlib.lib(i2c.obj)
 .TI.section.flags
                0x0000000000000034       0x1a ../ccs/Debug/driverlib.lib(interrupt.obj)
 .TI.section.flags
                0x000000000000004e       0x1a ../ccs/Debug/driverlib.lib(sysctl.obj)
 .TI.section.flags
                0x0000000000000068       0x1a ../ccs/Debug/driverlib.lib(cpu.obj)

.debug_info     0x0000000000000000    0x20119
 .debug_info    0x0000000000000000     0x13fe ./main.o
 .debug_info    0x00000000000013fe      0x194 ./tm4c123gh6pm_startup_ccs_gcc.o
 .debug_info    0x0000000000001592      0x240 ../ccs/Debug/driverlib.lib(gpio.obj)
 .debug_info    0x00000000000017d2      0x167 ../ccs/Debug/driverlib.lib(gpio.obj)
 .debug_info    0x0000000000001939      0x1b5 ../ccs/Debug/driverlib.lib(gpio.obj)
 .debug_info    0x0000000000001aee      0x169 ../ccs/Debug/driverlib.lib(gpio.obj)
 .debug_info    0x0000000000001c57      0x15b ../ccs/Debug/driverlib.lib(gpio.obj)
 .debug_info    0x0000000000001db2      0x2a3 ../ccs/Debug/driverlib.lib(gpio.obj)
 .debug_info    0x0000000000002055      0x259 ../ccs/Debug/driverlib.lib(gpio.obj)
 .debug_info    0x00000000000022ae      0x2b3 ../ccs/Debug/driverlib.lib(gpio.obj)
 .debug_info    0x0000000000002561      0x316 ../ccs/Debug/driverlib.lib(gpio.obj)
 .debug_info    0x0000000000002877      0x281 ../ccs/Debug/driverlib.lib(gpio.obj)
 .debug_info    0x0000000000002af8      0x283 ../ccs/Debug/driverlib.lib(gpio.obj)
 .debug_info    0x0000000000002d7b      0x287 ../ccs/Debug/driverlib.lib(gpio.obj)
 .debug_info    0x0000000000003002      0x285 ../ccs/Debug/driverlib.lib(gpio.obj)
 .debug_info    0x0000000000003287      0x27b ../ccs/Debug/driverlib.lib(gpio.obj)
 .debug_info    0x0000000000003502      0x27d ../ccs/Debug/driverlib.lib(gpio.obj)
 .debug_info    0x000000000000377f      0x27d ../ccs/Debug/driverlib.lib(gpio.obj)
 .debug_info    0x00000000000039fc      0x279 ../ccs/Debug/driverlib.lib(gpio.obj)
 .debug_info    0x0000000000003c75      0x279 ../ccs/Debug/driverlib.lib(gpio.obj)
 .debug_info    0x0000000000003eee      0x279 ../ccs/Debug/driverlib.lib(gpio.obj)
 .debug_info    0x0000000000004167      0x281 ../ccs/Debug/driverlib.lib(gpio.obj)
 .debug_info    0x00000000000043e8      0x279 ../ccs/Debug/driverlib.lib(gpio.obj)
 .debug_info    0x0000000000004661      0x27f ../ccs/Debug/driverlib.lib(gpio.obj)
 .debug_info    0x00000000000048e0      0x279 ../ccs/Debug/driverlib.lib(gpio.obj)
 .debug_info    0x0000000000004b59      0x291 ../ccs/Debug/driverlib.lib(gpio.obj)
 .debug_info    0x0000000000004dea      0x2bb ../ccs/Debug/driverlib.lib(gpio.obj)
 .debug_info    0x00000000000050a5      0x2b7 ../ccs/Debug/driverlib.lib(gpio.obj)
 .debug_info    0x000000000000535c      0x285 ../ccs/Debug/driverlib.lib(gpio.obj)
 .debug_info    0x00000000000055e1      0x289 ../ccs/Debug/driverlib.lib(gpio.obj)
 .debug_info    0x000000000000586a      0x289 ../ccs/Debug/driverlib.lib(gpio.obj)
 .debug_info    0x0000000000005af3      0x279 ../ccs/Debug/driverlib.lib(gpio.obj)
 .debug_info    0x0000000000005d6c      0x281 ../ccs/Debug/driverlib.lib(gpio.obj)
 .debug_info    0x0000000000005fed      0x293 ../ccs/Debug/driverlib.lib(gpio.obj)
 .debug_info    0x0000000000006280      0x287 ../ccs/Debug/driverlib.lib(gpio.obj)
 .debug_info    0x0000000000006507      0x279 ../ccs/Debug/driverlib.lib(gpio.obj)
 .debug_info    0x0000000000006780      0x279 ../ccs/Debug/driverlib.lib(gpio.obj)
 .debug_info    0x00000000000069f9      0x27b ../ccs/Debug/driverlib.lib(gpio.obj)
 .debug_info    0x0000000000006c74      0x280 ../ccs/Debug/driverlib.lib(gpio.obj)
 .debug_info    0x0000000000006ef4      0x345 ../ccs/Debug/driverlib.lib(gpio.obj)
 .debug_info    0x0000000000007239      0x298 ../ccs/Debug/driverlib.lib(gpio.obj)
 .debug_info    0x00000000000074d1      0x2c4 ../ccs/Debug/driverlib.lib(gpio.obj)
 .debug_info    0x0000000000007795      0x290 ../ccs/Debug/driverlib.lib(gpio.obj)
 .debug_info    0x0000000000007a25      0x2bb ../ccs/Debug/driverlib.lib(gpio.obj)
 .debug_info    0x0000000000007ce0      0x2db ../ccs/Debug/driverlib.lib(gpio.obj)
 .debug_info    0x0000000000007fbb      0x27f ../ccs/Debug/driverlib.lib(gpio.obj)
 .debug_info    0x000000000000823a      0x303 ../ccs/Debug/driverlib.lib(gpio.obj)
 .debug_info    0x000000000000853d      0x2cf ../ccs/Debug/driverlib.lib(gpio.obj)
 .debug_info    0x000000000000880c      0x28f ../ccs/Debug/driverlib.lib(gpio.obj)
 .debug_info    0x0000000000008a9b      0x291 ../ccs/Debug/driverlib.lib(gpio.obj)
 .debug_info    0x0000000000008d2c      0x28d ../ccs/Debug/driverlib.lib(gpio.obj)
 .debug_info    0x0000000000008fb9      0x2af ../ccs/Debug/driverlib.lib(gpio.obj)
 .debug_info    0x0000000000009268      0x289 ../ccs/Debug/driverlib.lib(gpio.obj)
 .debug_info    0x00000000000094f1      0x28b ../ccs/Debug/driverlib.lib(gpio.obj)
 .debug_info    0x000000000000977c      0x289 ../ccs/Debug/driverlib.lib(gpio.obj)
 .debug_info    0x0000000000009a05      0x28b ../ccs/Debug/driverlib.lib(gpio.obj)
 .debug_info    0x0000000000009c90       0x8b ../ccs/Debug/driverlib.lib(gpio.obj)
                0x0000000000009c90                __TI_DW.debug_info.$base_types.a3001db55c69772f4e2efd565078122a
 .debug_info    0x0000000000009d1b      0x18b ../ccs/Debug/driverlib.lib(gpio.obj)
                0x0000000000009d1b                __TI_DW.debug_info.stdint.h.066348b889ca56249dcd34de01246954
 .debug_info    0x0000000000009ea6       0xa7 ../ccs/Debug/driverlib.lib(gpio.obj)
                0x0000000000009ea6                __TI_DW.debug_info.yvals.h.3104962cf0c0d1dd116d97cae467d0f3
 .debug_info    0x0000000000009f4d       0x2d ../ccs/Debug/driverlib.lib(gpio.obj)
                0x0000000000009f4d                __TI_DW.debug_info.gpio.c.01c54feb4d96f1088c327d0c6aab3c40
 .debug_info    0x0000000000009f7a       0x4e ../ccs/Debug/driverlib.lib(gpio.obj)
                0x0000000000009f7a                __TI_DW.debug_info.stdarg.h.94a6efd7e0ac1e1539e5ef9b3dac1248
 .debug_info    0x0000000000009fc8      0x231 ../ccs/Debug/driverlib.lib(i2c.obj)
 .debug_info    0x000000000000a1f9      0x154 ../ccs/Debug/driverlib.lib(i2c.obj)
 .debug_info    0x000000000000a34d      0x198 ../ccs/Debug/driverlib.lib(i2c.obj)
 .debug_info    0x000000000000a4e5      0x166 ../ccs/Debug/driverlib.lib(i2c.obj)
 .debug_info    0x000000000000a64b      0x24c ../ccs/Debug/driverlib.lib(i2c.obj)
 .debug_info    0x000000000000a897      0x28e ../ccs/Debug/driverlib.lib(i2c.obj)
 .debug_info    0x000000000000ab25      0x250 ../ccs/Debug/driverlib.lib(i2c.obj)
 .debug_info    0x000000000000ad75      0x288 ../ccs/Debug/driverlib.lib(i2c.obj)
 .debug_info    0x000000000000affd      0x284 ../ccs/Debug/driverlib.lib(i2c.obj)
 .debug_info    0x000000000000b281      0x298 ../ccs/Debug/driverlib.lib(i2c.obj)
 .debug_info    0x000000000000b519      0x252 ../ccs/Debug/driverlib.lib(i2c.obj)
 .debug_info    0x000000000000b76b      0x29a ../ccs/Debug/driverlib.lib(i2c.obj)
 .debug_info    0x000000000000ba05      0x254 ../ccs/Debug/driverlib.lib(i2c.obj)
 .debug_info    0x000000000000bc59      0x296 ../ccs/Debug/driverlib.lib(i2c.obj)
 .debug_info    0x000000000000beef      0x250 ../ccs/Debug/driverlib.lib(i2c.obj)
 .debug_info    0x000000000000c13f      0x24c ../ccs/Debug/driverlib.lib(i2c.obj)
 .debug_info    0x000000000000c38b      0x29f ../ccs/Debug/driverlib.lib(i2c.obj)
 .debug_info    0x000000000000c62a      0x28e ../ccs/Debug/driverlib.lib(i2c.obj)
 .debug_info    0x000000000000c8b8      0x256 ../ccs/Debug/driverlib.lib(i2c.obj)
 .debug_info    0x000000000000cb0e      0x24e ../ccs/Debug/driverlib.lib(i2c.obj)
 .debug_info    0x000000000000cd5c      0x27c ../ccs/Debug/driverlib.lib(i2c.obj)
 .debug_info    0x000000000000cfd8      0x252 ../ccs/Debug/driverlib.lib(i2c.obj)
 .debug_info    0x000000000000d22a      0x2b9 ../ccs/Debug/driverlib.lib(i2c.obj)
 .debug_info    0x000000000000d4e3      0x278 ../ccs/Debug/driverlib.lib(i2c.obj)
 .debug_info    0x000000000000d75b      0x284 ../ccs/Debug/driverlib.lib(i2c.obj)
 .debug_info    0x000000000000d9df      0x24c ../ccs/Debug/driverlib.lib(i2c.obj)
 .debug_info    0x000000000000dc2b      0x28e ../ccs/Debug/driverlib.lib(i2c.obj)
 .debug_info    0x000000000000deb9      0x28c ../ccs/Debug/driverlib.lib(i2c.obj)
 .debug_info    0x000000000000e145      0x2ce ../ccs/Debug/driverlib.lib(i2c.obj)
 .debug_info    0x000000000000e413      0x25e ../ccs/Debug/driverlib.lib(i2c.obj)
 .debug_info    0x000000000000e671      0x28a ../ccs/Debug/driverlib.lib(i2c.obj)
 .debug_info    0x000000000000e8fb      0x286 ../ccs/Debug/driverlib.lib(i2c.obj)
 .debug_info    0x000000000000eb81      0x29a ../ccs/Debug/driverlib.lib(i2c.obj)
 .debug_info    0x000000000000ee1b      0x254 ../ccs/Debug/driverlib.lib(i2c.obj)
 .debug_info    0x000000000000f06f      0x29c ../ccs/Debug/driverlib.lib(i2c.obj)
 .debug_info    0x000000000000f30b      0x256 ../ccs/Debug/driverlib.lib(i2c.obj)
 .debug_info    0x000000000000f561      0x298 ../ccs/Debug/driverlib.lib(i2c.obj)
 .debug_info    0x000000000000f7f9      0x252 ../ccs/Debug/driverlib.lib(i2c.obj)
 .debug_info    0x000000000000fa4b      0x24e ../ccs/Debug/driverlib.lib(i2c.obj)
 .debug_info    0x000000000000fc99      0x2d5 ../ccs/Debug/driverlib.lib(i2c.obj)
 .debug_info    0x000000000000ff6e      0x2a6 ../ccs/Debug/driverlib.lib(i2c.obj)
 .debug_info    0x0000000000010214      0x269 ../ccs/Debug/driverlib.lib(i2c.obj)
 .debug_info    0x000000000001047d      0x250 ../ccs/Debug/driverlib.lib(i2c.obj)
 .debug_info    0x00000000000106cd      0x27e ../ccs/Debug/driverlib.lib(i2c.obj)
 .debug_info    0x000000000001094b      0x254 ../ccs/Debug/driverlib.lib(i2c.obj)
 .debug_info    0x0000000000010b9f      0x27e ../ccs/Debug/driverlib.lib(i2c.obj)
 .debug_info    0x0000000000010e1d      0x24e ../ccs/Debug/driverlib.lib(i2c.obj)
 .debug_info    0x000000000001106b      0x254 ../ccs/Debug/driverlib.lib(i2c.obj)
 .debug_info    0x00000000000112bf      0x294 ../ccs/Debug/driverlib.lib(i2c.obj)
 .debug_info    0x0000000000011553      0x260 ../ccs/Debug/driverlib.lib(i2c.obj)
 .debug_info    0x00000000000117b3      0x252 ../ccs/Debug/driverlib.lib(i2c.obj)
 .debug_info    0x0000000000011a05      0x28c ../ccs/Debug/driverlib.lib(i2c.obj)
 .debug_info    0x0000000000011c91      0x28a ../ccs/Debug/driverlib.lib(i2c.obj)
 .debug_info    0x0000000000011f1b      0x2bd ../ccs/Debug/driverlib.lib(i2c.obj)
 .debug_info    0x00000000000121d8      0x24e ../ccs/Debug/driverlib.lib(i2c.obj)
 .debug_info    0x0000000000012426      0x294 ../ccs/Debug/driverlib.lib(i2c.obj)
 .debug_info    0x00000000000126ba      0x27a ../ccs/Debug/driverlib.lib(i2c.obj)
 .debug_info    0x0000000000012934      0x298 ../ccs/Debug/driverlib.lib(i2c.obj)
 .debug_info    0x0000000000012bcc      0x250 ../ccs/Debug/driverlib.lib(i2c.obj)
 .debug_info    0x0000000000012e1c       0x2d ../ccs/Debug/driverlib.lib(i2c.obj)
                0x0000000000012e1c                __TI_DW.debug_info.i2c.c.44a7eca4a3d0e7f6dab8479760346d67
 .debug_info    0x0000000000012e49      0x20e ../ccs/Debug/driverlib.lib(interrupt.obj)
 .debug_info    0x0000000000013057      0x210 ../ccs/Debug/driverlib.lib(interrupt.obj)
 .debug_info    0x0000000000013267      0x14e ../ccs/Debug/driverlib.lib(interrupt.obj)
 .debug_info    0x00000000000133b5      0x157 ../ccs/Debug/driverlib.lib(interrupt.obj)
 .debug_info    0x000000000001350c      0x225 ../ccs/Debug/driverlib.lib(interrupt.obj)
 .debug_info    0x0000000000013731      0x270 ../ccs/Debug/driverlib.lib(interrupt.obj)
 .debug_info    0x00000000000139a1      0x26a ../ccs/Debug/driverlib.lib(interrupt.obj)
 .debug_info    0x0000000000013c0b      0x2c1 ../ccs/Debug/driverlib.lib(interrupt.obj)
 .debug_info    0x0000000000013ecc      0x2c9 ../ccs/Debug/driverlib.lib(interrupt.obj)
 .debug_info    0x0000000000014195      0x26c ../ccs/Debug/driverlib.lib(interrupt.obj)
 .debug_info    0x0000000000014401      0x247 ../ccs/Debug/driverlib.lib(interrupt.obj)
 .debug_info    0x0000000000014648      0x26e ../ccs/Debug/driverlib.lib(interrupt.obj)
 .debug_info    0x00000000000148b6      0x274 ../ccs/Debug/driverlib.lib(interrupt.obj)
 .debug_info    0x0000000000014b2a      0x276 ../ccs/Debug/driverlib.lib(interrupt.obj)
 .debug_info    0x0000000000014da0      0x26a ../ccs/Debug/driverlib.lib(interrupt.obj)
 .debug_info    0x000000000001500a      0x26e ../ccs/Debug/driverlib.lib(interrupt.obj)
 .debug_info    0x0000000000015278      0x23e ../ccs/Debug/driverlib.lib(interrupt.obj)
 .debug_info    0x00000000000154b6      0x240 ../ccs/Debug/driverlib.lib(interrupt.obj)
 .debug_info    0x00000000000156f6      0x2a1 ../ccs/Debug/driverlib.lib(interrupt.obj)
 .debug_info    0x0000000000015997      0x268 ../ccs/Debug/driverlib.lib(interrupt.obj)
 .debug_info    0x0000000000015bff      0x26a ../ccs/Debug/driverlib.lib(interrupt.obj)
 .debug_info    0x0000000000015e69       0x2d ../ccs/Debug/driverlib.lib(interrupt.obj)
                0x0000000000015e69                __TI_DW.debug_info.interrupt.c.9c39c5dc2ccfcac9c4c94c196b180166
 .debug_info    0x0000000000015e96      0x298 ../ccs/Debug/driverlib.lib(sysctl.obj)
 .debug_info    0x000000000001612e      0x14d ../ccs/Debug/driverlib.lib(sysctl.obj)
 .debug_info    0x000000000001627b      0x159 ../ccs/Debug/driverlib.lib(sysctl.obj)
 .debug_info    0x00000000000163d4      0x153 ../ccs/Debug/driverlib.lib(sysctl.obj)
 .debug_info    0x0000000000016527      0x160 ../ccs/Debug/driverlib.lib(sysctl.obj)
 .debug_info    0x0000000000016687      0x23b ../ccs/Debug/driverlib.lib(sysctl.obj)
 .debug_info    0x00000000000168c2      0x271 ../ccs/Debug/driverlib.lib(sysctl.obj)
 .debug_info    0x0000000000016b33      0x26f ../ccs/Debug/driverlib.lib(sysctl.obj)
 .debug_info    0x0000000000016da2      0x320 ../ccs/Debug/driverlib.lib(sysctl.obj)
 .debug_info    0x00000000000170c2      0x22b ../ccs/Debug/driverlib.lib(sysctl.obj)
 .debug_info    0x00000000000172ed      0x22d ../ccs/Debug/driverlib.lib(sysctl.obj)
 .debug_info    0x000000000001751a      0x267 ../ccs/Debug/driverlib.lib(sysctl.obj)
 .debug_info    0x0000000000017781      0x225 ../ccs/Debug/driverlib.lib(sysctl.obj)
 .debug_info    0x00000000000179a6      0x22d ../ccs/Debug/driverlib.lib(sysctl.obj)
 .debug_info    0x0000000000017bd3      0x231 ../ccs/Debug/driverlib.lib(sysctl.obj)
 .debug_info    0x0000000000017e04      0x26b ../ccs/Debug/driverlib.lib(sysctl.obj)
 .debug_info    0x000000000001806f      0x275 ../ccs/Debug/driverlib.lib(sysctl.obj)
 .debug_info    0x00000000000182e4      0x237 ../ccs/Debug/driverlib.lib(sysctl.obj)
 .debug_info    0x000000000001851b      0x212 ../ccs/Debug/driverlib.lib(sysctl.obj)
 .debug_info    0x000000000001872d      0x287 ../ccs/Debug/driverlib.lib(sysctl.obj)
 .debug_info    0x00000000000189b4      0x289 ../ccs/Debug/driverlib.lib(sysctl.obj)
 .debug_info    0x0000000000018c3d      0x295 ../ccs/Debug/driverlib.lib(sysctl.obj)
 .debug_info    0x0000000000018ed2      0x27f ../ccs/Debug/driverlib.lib(sysctl.obj)
 .debug_info    0x0000000000019151      0x283 ../ccs/Debug/driverlib.lib(sysctl.obj)
 .debug_info    0x00000000000193d4      0x27f ../ccs/Debug/driverlib.lib(sysctl.obj)
 .debug_info    0x0000000000019653      0x281 ../ccs/Debug/driverlib.lib(sysctl.obj)
 .debug_info    0x00000000000198d4      0x27d ../ccs/Debug/driverlib.lib(sysctl.obj)
 .debug_info    0x0000000000019b51      0x27f ../ccs/Debug/driverlib.lib(sysctl.obj)
 .debug_info    0x0000000000019dd0      0x28f ../ccs/Debug/driverlib.lib(sysctl.obj)
 .debug_info    0x000000000001a05f      0x291 ../ccs/Debug/driverlib.lib(sysctl.obj)
 .debug_info    0x000000000001a2f0      0x271 ../ccs/Debug/driverlib.lib(sysctl.obj)
 .debug_info    0x000000000001a561      0x263 ../ccs/Debug/driverlib.lib(sysctl.obj)
 .debug_info    0x000000000001a7c4      0x22d ../ccs/Debug/driverlib.lib(sysctl.obj)
 .debug_info    0x000000000001a9f1      0x265 ../ccs/Debug/driverlib.lib(sysctl.obj)
 .debug_info    0x000000000001ac56      0x229 ../ccs/Debug/driverlib.lib(sysctl.obj)
 .debug_info    0x000000000001ae7f      0x255 ../ccs/Debug/driverlib.lib(sysctl.obj)
 .debug_info    0x000000000001b0d4      0x267 ../ccs/Debug/driverlib.lib(sysctl.obj)
 .debug_info    0x000000000001b33b      0x267 ../ccs/Debug/driverlib.lib(sysctl.obj)
 .debug_info    0x000000000001b5a2      0x22d ../ccs/Debug/driverlib.lib(sysctl.obj)
 .debug_info    0x000000000001b7cf      0x26f ../ccs/Debug/driverlib.lib(sysctl.obj)
 .debug_info    0x000000000001ba3e      0x235 ../ccs/Debug/driverlib.lib(sysctl.obj)
 .debug_info    0x000000000001bc73      0x252 ../ccs/Debug/driverlib.lib(sysctl.obj)
 .debug_info    0x000000000001bec5      0x257 ../ccs/Debug/driverlib.lib(sysctl.obj)
 .debug_info    0x000000000001c11c      0x285 ../ccs/Debug/driverlib.lib(sysctl.obj)
 .debug_info    0x000000000001c3a1      0x257 ../ccs/Debug/driverlib.lib(sysctl.obj)
 .debug_info    0x000000000001c5f8      0x259 ../ccs/Debug/driverlib.lib(sysctl.obj)
 .debug_info    0x000000000001c851      0x255 ../ccs/Debug/driverlib.lib(sysctl.obj)
 .debug_info    0x000000000001caa6      0x287 ../ccs/Debug/driverlib.lib(sysctl.obj)
 .debug_info    0x000000000001cd2d      0x289 ../ccs/Debug/driverlib.lib(sysctl.obj)
 .debug_info    0x000000000001cfb6      0x22f ../ccs/Debug/driverlib.lib(sysctl.obj)
 .debug_info    0x000000000001d1e5      0x241 ../ccs/Debug/driverlib.lib(sysctl.obj)
 .debug_info    0x000000000001d426      0x26f ../ccs/Debug/driverlib.lib(sysctl.obj)
 .debug_info    0x000000000001d695      0x26f ../ccs/Debug/driverlib.lib(sysctl.obj)
 .debug_info    0x000000000001d904      0x2c4 ../ccs/Debug/driverlib.lib(sysctl.obj)
 .debug_info    0x000000000001dbc8      0x232 ../ccs/Debug/driverlib.lib(sysctl.obj)
 .debug_info    0x000000000001ddfa      0x2db ../ccs/Debug/driverlib.lib(sysctl.obj)
 .debug_info    0x000000000001e0d5      0x297 ../ccs/Debug/driverlib.lib(sysctl.obj)
 .debug_info    0x000000000001e36c      0x2b5 ../ccs/Debug/driverlib.lib(sysctl.obj)
 .debug_info    0x000000000001e621      0x270 ../ccs/Debug/driverlib.lib(sysctl.obj)
 .debug_info    0x000000000001e891      0x2ba ../ccs/Debug/driverlib.lib(sysctl.obj)
 .debug_info    0x000000000001eb4b      0x49a ../ccs/Debug/driverlib.lib(sysctl.obj)
 .debug_info    0x000000000001efe5      0x265 ../ccs/Debug/driverlib.lib(sysctl.obj)
 .debug_info    0x000000000001f24a       0x5f ../ccs/Debug/driverlib.lib(sysctl.obj)
                0x000000000001f24a                __TI_DW.debug_info.sysctl.c.a265d9d1903ab544f4f3a947619a8ee7
 .debug_info    0x000000000001f2a9      0x128 ../ccs/Debug/driverlib.lib(cpu.obj)
 .debug_info    0x000000000001f3d1      0x20a ../ccs/Debug/driverlib.lib(cpu.obj)
 .debug_info    0x000000000001f5db      0x213 ../ccs/Debug/driverlib.lib(cpu.obj)
 .debug_info    0x000000000001f7ee      0x212 ../ccs/Debug/driverlib.lib(cpu.obj)
 .debug_info    0x000000000001fa00      0x20f ../ccs/Debug/driverlib.lib(cpu.obj)
 .debug_info    0x000000000001fc0f      0x23d ../ccs/Debug/driverlib.lib(cpu.obj)
 .debug_info    0x000000000001fe4c      0x21c ../ccs/Debug/driverlib.lib(cpu.obj)
 .debug_info    0x0000000000020068       0x84 ../ccs/Debug/driverlib.lib(cpu.obj)
                0x0000000000020068                __TI_DW.debug_info.$base_types.c8c38483d660372cd06395436475430b
 .debug_info    0x00000000000200ec       0x2d ../ccs/Debug/driverlib.lib(cpu.obj)
                0x00000000000200ec                __TI_DW.debug_info.cpu.c.2c258bef3018e3b4a3c5a50564de3197

.debug_abbrev   0x0000000000000000     0x5638
 .debug_abbrev  0x0000000000000000      0x355 ./main.o
 .debug_abbrev  0x0000000000000355       0xca ./tm4c123gh6pm_startup_ccs_gcc.o
 .debug_abbrev  0x000000000000041f       0x72 ../ccs/Debug/driverlib.lib(gpio.obj)
 .debug_abbrev  0x0000000000000491       0x27 ../ccs/Debug/driverlib.lib(gpio.obj)
 .debug_abbrev  0x00000000000004b8       0x27 ../ccs/Debug/driverlib.lib(gpio.obj)
 .debug_abbrev  0x00000000000004df       0x27 ../ccs/Debug/driverlib.lib(gpio.obj)
 .debug_abbrev  0x0000000000000506       0x27 ../ccs/Debug/driverlib.lib(gpio.obj)
 .debug_abbrev  0x000000000000052d       0x6c ../ccs/Debug/driverlib.lib(gpio.obj)
 .debug_abbrev  0x0000000000000599       0x6e ../ccs/Debug/driverlib.lib(gpio.obj)
 .debug_abbrev  0x0000000000000607       0x6c ../ccs/Debug/driverlib.lib(gpio.obj)
 .debug_abbrev  0x0000000000000673       0x6c ../ccs/Debug/driverlib.lib(gpio.obj)
 .debug_abbrev  0x00000000000006df       0x6c ../ccs/Debug/driverlib.lib(gpio.obj)
 .debug_abbrev  0x000000000000074b       0x6c ../ccs/Debug/driverlib.lib(gpio.obj)
 .debug_abbrev  0x00000000000007b7       0x6c ../ccs/Debug/driverlib.lib(gpio.obj)
 .debug_abbrev  0x0000000000000823       0x6c ../ccs/Debug/driverlib.lib(gpio.obj)
 .debug_abbrev  0x000000000000088f       0x6c ../ccs/Debug/driverlib.lib(gpio.obj)
 .debug_abbrev  0x00000000000008fb       0x6c ../ccs/Debug/driverlib.lib(gpio.obj)
 .debug_abbrev  0x0000000000000967       0x6c ../ccs/Debug/driverlib.lib(gpio.obj)
 .debug_abbrev  0x00000000000009d3       0x6c ../ccs/Debug/driverlib.lib(gpio.obj)
 .debug_abbrev  0x0000000000000a3f       0x6c ../ccs/Debug/driverlib.lib(gpio.obj)
 .debug_abbrev  0x0000000000000aab       0x6c ../ccs/Debug/driverlib.lib(gpio.obj)
 .debug_abbrev  0x0000000000000b17       0x6c ../ccs/Debug/driverlib.lib(gpio.obj)
 .debug_abbrev  0x0000000000000b83       0x6c ../ccs/Debug/driverlib.lib(gpio.obj)
 .debug_abbrev  0x0000000000000bef       0x6c ../ccs/Debug/driverlib.lib(gpio.obj)
 .debug_abbrev  0x0000000000000c5b       0x6c ../ccs/Debug/driverlib.lib(gpio.obj)
 .debug_abbrev  0x0000000000000cc7       0x6c ../ccs/Debug/driverlib.lib(gpio.obj)
 .debug_abbrev  0x0000000000000d33       0x7a ../ccs/Debug/driverlib.lib(gpio.obj)
 .debug_abbrev  0x0000000000000dad       0x7a ../ccs/Debug/driverlib.lib(gpio.obj)
 .debug_abbrev  0x0000000000000e27       0x6c ../ccs/Debug/driverlib.lib(gpio.obj)
 .debug_abbrev  0x0000000000000e93       0x6c ../ccs/Debug/driverlib.lib(gpio.obj)
 .debug_abbrev  0x0000000000000eff       0x6c ../ccs/Debug/driverlib.lib(gpio.obj)
 .debug_abbrev  0x0000000000000f6b       0x6c ../ccs/Debug/driverlib.lib(gpio.obj)
 .debug_abbrev  0x0000000000000fd7       0x6c ../ccs/Debug/driverlib.lib(gpio.obj)
 .debug_abbrev  0x0000000000001043       0x6c ../ccs/Debug/driverlib.lib(gpio.obj)
 .debug_abbrev  0x00000000000010af       0x6c ../ccs/Debug/driverlib.lib(gpio.obj)
 .debug_abbrev  0x000000000000111b       0x6c ../ccs/Debug/driverlib.lib(gpio.obj)
 .debug_abbrev  0x0000000000001187       0x6c ../ccs/Debug/driverlib.lib(gpio.obj)
 .debug_abbrev  0x00000000000011f3       0x6e ../ccs/Debug/driverlib.lib(gpio.obj)
 .debug_abbrev  0x0000000000001261       0x6c ../ccs/Debug/driverlib.lib(gpio.obj)
 .debug_abbrev  0x00000000000012cd       0x6c ../ccs/Debug/driverlib.lib(gpio.obj)
 .debug_abbrev  0x0000000000001339       0x6c ../ccs/Debug/driverlib.lib(gpio.obj)
 .debug_abbrev  0x00000000000013a5       0x7a ../ccs/Debug/driverlib.lib(gpio.obj)
 .debug_abbrev  0x000000000000141f       0x7a ../ccs/Debug/driverlib.lib(gpio.obj)
 .debug_abbrev  0x0000000000001499       0x6c ../ccs/Debug/driverlib.lib(gpio.obj)
 .debug_abbrev  0x0000000000001505       0x6e ../ccs/Debug/driverlib.lib(gpio.obj)
 .debug_abbrev  0x0000000000001573       0x6e ../ccs/Debug/driverlib.lib(gpio.obj)
 .debug_abbrev  0x00000000000015e1       0x7a ../ccs/Debug/driverlib.lib(gpio.obj)
 .debug_abbrev  0x000000000000165b       0x7a ../ccs/Debug/driverlib.lib(gpio.obj)
 .debug_abbrev  0x00000000000016d5       0x6c ../ccs/Debug/driverlib.lib(gpio.obj)
 .debug_abbrev  0x0000000000001741       0x6c ../ccs/Debug/driverlib.lib(gpio.obj)
 .debug_abbrev  0x00000000000017ad       0x6c ../ccs/Debug/driverlib.lib(gpio.obj)
 .debug_abbrev  0x0000000000001819       0x6e ../ccs/Debug/driverlib.lib(gpio.obj)
 .debug_abbrev  0x0000000000001887       0x6c ../ccs/Debug/driverlib.lib(gpio.obj)
 .debug_abbrev  0x00000000000018f3       0x6c ../ccs/Debug/driverlib.lib(gpio.obj)
 .debug_abbrev  0x000000000000195f       0x6c ../ccs/Debug/driverlib.lib(gpio.obj)
 .debug_abbrev  0x00000000000019cb       0x6c ../ccs/Debug/driverlib.lib(gpio.obj)
 .debug_abbrev  0x0000000000001a37       0x1f ../ccs/Debug/driverlib.lib(gpio.obj)
 .debug_abbrev  0x0000000000001a56       0x35 ../ccs/Debug/driverlib.lib(gpio.obj)
 .debug_abbrev  0x0000000000001a8b       0x35 ../ccs/Debug/driverlib.lib(gpio.obj)
 .debug_abbrev  0x0000000000001ac0       0x24 ../ccs/Debug/driverlib.lib(gpio.obj)
 .debug_abbrev  0x0000000000001ae4       0x4b ../ccs/Debug/driverlib.lib(gpio.obj)
 .debug_abbrev  0x0000000000001b2f       0x72 ../ccs/Debug/driverlib.lib(i2c.obj)
 .debug_abbrev  0x0000000000001ba1       0x27 ../ccs/Debug/driverlib.lib(i2c.obj)
 .debug_abbrev  0x0000000000001bc8       0x27 ../ccs/Debug/driverlib.lib(i2c.obj)
 .debug_abbrev  0x0000000000001bef       0x27 ../ccs/Debug/driverlib.lib(i2c.obj)
 .debug_abbrev  0x0000000000001c16       0x6c ../ccs/Debug/driverlib.lib(i2c.obj)
 .debug_abbrev  0x0000000000001c82       0x6c ../ccs/Debug/driverlib.lib(i2c.obj)
 .debug_abbrev  0x0000000000001cee       0x6e ../ccs/Debug/driverlib.lib(i2c.obj)
 .debug_abbrev  0x0000000000001d5c       0x6e ../ccs/Debug/driverlib.lib(i2c.obj)
 .debug_abbrev  0x0000000000001dca       0x6e ../ccs/Debug/driverlib.lib(i2c.obj)
 .debug_abbrev  0x0000000000001e38       0x6c ../ccs/Debug/driverlib.lib(i2c.obj)
 .debug_abbrev  0x0000000000001ea4       0x6c ../ccs/Debug/driverlib.lib(i2c.obj)
 .debug_abbrev  0x0000000000001f10       0x6c ../ccs/Debug/driverlib.lib(i2c.obj)
 .debug_abbrev  0x0000000000001f7c       0x6c ../ccs/Debug/driverlib.lib(i2c.obj)
 .debug_abbrev  0x0000000000001fe8       0x6c ../ccs/Debug/driverlib.lib(i2c.obj)
 .debug_abbrev  0x0000000000002054       0x6c ../ccs/Debug/driverlib.lib(i2c.obj)
 .debug_abbrev  0x00000000000020c0       0x6c ../ccs/Debug/driverlib.lib(i2c.obj)
 .debug_abbrev  0x000000000000212c       0x7a ../ccs/Debug/driverlib.lib(i2c.obj)
 .debug_abbrev  0x00000000000021a6       0x6c ../ccs/Debug/driverlib.lib(i2c.obj)
 .debug_abbrev  0x0000000000002212       0x6c ../ccs/Debug/driverlib.lib(i2c.obj)
 .debug_abbrev  0x000000000000227e       0x6c ../ccs/Debug/driverlib.lib(i2c.obj)
 .debug_abbrev  0x00000000000022ea       0x6c ../ccs/Debug/driverlib.lib(i2c.obj)
 .debug_abbrev  0x0000000000002356       0x6e ../ccs/Debug/driverlib.lib(i2c.obj)
 .debug_abbrev  0x00000000000023c4       0x6c ../ccs/Debug/driverlib.lib(i2c.obj)
 .debug_abbrev  0x0000000000002430       0x6c ../ccs/Debug/driverlib.lib(i2c.obj)
 .debug_abbrev  0x000000000000249c       0x6c ../ccs/Debug/driverlib.lib(i2c.obj)
 .debug_abbrev  0x0000000000002508       0x6c ../ccs/Debug/driverlib.lib(i2c.obj)
 .debug_abbrev  0x0000000000002574       0x6c ../ccs/Debug/driverlib.lib(i2c.obj)
 .debug_abbrev  0x00000000000025e0       0x6c ../ccs/Debug/driverlib.lib(i2c.obj)
 .debug_abbrev  0x000000000000264c       0x6c ../ccs/Debug/driverlib.lib(i2c.obj)
 .debug_abbrev  0x00000000000026b8       0x6e ../ccs/Debug/driverlib.lib(i2c.obj)
 .debug_abbrev  0x0000000000002726       0x6e ../ccs/Debug/driverlib.lib(i2c.obj)
 .debug_abbrev  0x0000000000002794       0x6e ../ccs/Debug/driverlib.lib(i2c.obj)
 .debug_abbrev  0x0000000000002802       0x6c ../ccs/Debug/driverlib.lib(i2c.obj)
 .debug_abbrev  0x000000000000286e       0x6c ../ccs/Debug/driverlib.lib(i2c.obj)
 .debug_abbrev  0x00000000000028da       0x6c ../ccs/Debug/driverlib.lib(i2c.obj)
 .debug_abbrev  0x0000000000002946       0x6c ../ccs/Debug/driverlib.lib(i2c.obj)
 .debug_abbrev  0x00000000000029b2       0x6c ../ccs/Debug/driverlib.lib(i2c.obj)
 .debug_abbrev  0x0000000000002a1e       0x6c ../ccs/Debug/driverlib.lib(i2c.obj)
 .debug_abbrev  0x0000000000002a8a       0x6c ../ccs/Debug/driverlib.lib(i2c.obj)
 .debug_abbrev  0x0000000000002af6       0x7a ../ccs/Debug/driverlib.lib(i2c.obj)
 .debug_abbrev  0x0000000000002b70       0x6c ../ccs/Debug/driverlib.lib(i2c.obj)
 .debug_abbrev  0x0000000000002bdc       0x6e ../ccs/Debug/driverlib.lib(i2c.obj)
 .debug_abbrev  0x0000000000002c4a       0x6c ../ccs/Debug/driverlib.lib(i2c.obj)
 .debug_abbrev  0x0000000000002cb6       0x6c ../ccs/Debug/driverlib.lib(i2c.obj)
 .debug_abbrev  0x0000000000002d22       0x6e ../ccs/Debug/driverlib.lib(i2c.obj)
 .debug_abbrev  0x0000000000002d90       0x6c ../ccs/Debug/driverlib.lib(i2c.obj)
 .debug_abbrev  0x0000000000002dfc       0x6e ../ccs/Debug/driverlib.lib(i2c.obj)
 .debug_abbrev  0x0000000000002e6a       0x6e ../ccs/Debug/driverlib.lib(i2c.obj)
 .debug_abbrev  0x0000000000002ed8       0x6c ../ccs/Debug/driverlib.lib(i2c.obj)
 .debug_abbrev  0x0000000000002f44       0x6e ../ccs/Debug/driverlib.lib(i2c.obj)
 .debug_abbrev  0x0000000000002fb2       0x6c ../ccs/Debug/driverlib.lib(i2c.obj)
 .debug_abbrev  0x000000000000301e       0x6c ../ccs/Debug/driverlib.lib(i2c.obj)
 .debug_abbrev  0x000000000000308a       0x7a ../ccs/Debug/driverlib.lib(i2c.obj)
 .debug_abbrev  0x0000000000003104       0x7a ../ccs/Debug/driverlib.lib(i2c.obj)
 .debug_abbrev  0x000000000000317e       0x6e ../ccs/Debug/driverlib.lib(i2c.obj)
 .debug_abbrev  0x00000000000031ec       0x6e ../ccs/Debug/driverlib.lib(i2c.obj)
 .debug_abbrev  0x000000000000325a       0x6c ../ccs/Debug/driverlib.lib(i2c.obj)
 .debug_abbrev  0x00000000000032c6       0x6e ../ccs/Debug/driverlib.lib(i2c.obj)
 .debug_abbrev  0x0000000000003334       0x6e ../ccs/Debug/driverlib.lib(i2c.obj)
 .debug_abbrev  0x00000000000033a2       0x24 ../ccs/Debug/driverlib.lib(i2c.obj)
 .debug_abbrev  0x00000000000033c6       0x8e ../ccs/Debug/driverlib.lib(interrupt.obj)
 .debug_abbrev  0x0000000000003454       0x27 ../ccs/Debug/driverlib.lib(interrupt.obj)
 .debug_abbrev  0x000000000000347b       0x27 ../ccs/Debug/driverlib.lib(interrupt.obj)
 .debug_abbrev  0x00000000000034a2       0x29 ../ccs/Debug/driverlib.lib(interrupt.obj)
 .debug_abbrev  0x00000000000034cb       0x40 ../ccs/Debug/driverlib.lib(interrupt.obj)
 .debug_abbrev  0x000000000000350b       0x6c ../ccs/Debug/driverlib.lib(interrupt.obj)
 .debug_abbrev  0x0000000000003577       0x6c ../ccs/Debug/driverlib.lib(interrupt.obj)
 .debug_abbrev  0x00000000000035e3       0x6c ../ccs/Debug/driverlib.lib(interrupt.obj)
 .debug_abbrev  0x000000000000364f       0x6c ../ccs/Debug/driverlib.lib(interrupt.obj)
 .debug_abbrev  0x00000000000036bb       0x63 ../ccs/Debug/driverlib.lib(interrupt.obj)
 .debug_abbrev  0x000000000000371e       0x57 ../ccs/Debug/driverlib.lib(interrupt.obj)
 .debug_abbrev  0x0000000000003775       0x6c ../ccs/Debug/driverlib.lib(interrupt.obj)
 .debug_abbrev  0x00000000000037e1       0x60 ../ccs/Debug/driverlib.lib(interrupt.obj)
 .debug_abbrev  0x0000000000003841       0x6e ../ccs/Debug/driverlib.lib(interrupt.obj)
 .debug_abbrev  0x00000000000038af       0x6c ../ccs/Debug/driverlib.lib(interrupt.obj)
 .debug_abbrev  0x000000000000391b       0x6c ../ccs/Debug/driverlib.lib(interrupt.obj)
 .debug_abbrev  0x0000000000003987       0x60 ../ccs/Debug/driverlib.lib(interrupt.obj)
 .debug_abbrev  0x00000000000039e7       0x60 ../ccs/Debug/driverlib.lib(interrupt.obj)
 .debug_abbrev  0x0000000000003a47       0x6e ../ccs/Debug/driverlib.lib(interrupt.obj)
 .debug_abbrev  0x0000000000003ab5       0x6c ../ccs/Debug/driverlib.lib(interrupt.obj)
 .debug_abbrev  0x0000000000003b21       0x6c ../ccs/Debug/driverlib.lib(interrupt.obj)
 .debug_abbrev  0x0000000000003b8d       0x24 ../ccs/Debug/driverlib.lib(interrupt.obj)
 .debug_abbrev  0x0000000000003bb1       0xb0 ../ccs/Debug/driverlib.lib(sysctl.obj)
 .debug_abbrev  0x0000000000003c61       0x27 ../ccs/Debug/driverlib.lib(sysctl.obj)
 .debug_abbrev  0x0000000000003c88       0x27 ../ccs/Debug/driverlib.lib(sysctl.obj)
 .debug_abbrev  0x0000000000003caf       0x27 ../ccs/Debug/driverlib.lib(sysctl.obj)
 .debug_abbrev  0x0000000000003cd6       0x27 ../ccs/Debug/driverlib.lib(sysctl.obj)
 .debug_abbrev  0x0000000000003cfd       0x52 ../ccs/Debug/driverlib.lib(sysctl.obj)
 .debug_abbrev  0x0000000000003d4f       0x6c ../ccs/Debug/driverlib.lib(sysctl.obj)
 .debug_abbrev  0x0000000000003dbb       0x6c ../ccs/Debug/driverlib.lib(sysctl.obj)
 .debug_abbrev  0x0000000000003e27       0x6e ../ccs/Debug/driverlib.lib(sysctl.obj)
 .debug_abbrev  0x0000000000003e95       0x50 ../ccs/Debug/driverlib.lib(sysctl.obj)
 .debug_abbrev  0x0000000000003ee5       0x50 ../ccs/Debug/driverlib.lib(sysctl.obj)
 .debug_abbrev  0x0000000000003f35       0x6c ../ccs/Debug/driverlib.lib(sysctl.obj)
 .debug_abbrev  0x0000000000003fa1       0x55 ../ccs/Debug/driverlib.lib(sysctl.obj)
 .debug_abbrev  0x0000000000003ff6       0x52 ../ccs/Debug/driverlib.lib(sysctl.obj)
 .debug_abbrev  0x0000000000004048       0x52 ../ccs/Debug/driverlib.lib(sysctl.obj)
 .debug_abbrev  0x000000000000409a       0x6c ../ccs/Debug/driverlib.lib(sysctl.obj)
 .debug_abbrev  0x0000000000004106       0x6c ../ccs/Debug/driverlib.lib(sysctl.obj)
 .debug_abbrev  0x0000000000004172       0x52 ../ccs/Debug/driverlib.lib(sysctl.obj)
 .debug_abbrev  0x00000000000041c4       0x42 ../ccs/Debug/driverlib.lib(sysctl.obj)
 .debug_abbrev  0x0000000000004206       0x6c ../ccs/Debug/driverlib.lib(sysctl.obj)
 .debug_abbrev  0x0000000000004272       0x6c ../ccs/Debug/driverlib.lib(sysctl.obj)
 .debug_abbrev  0x00000000000042de       0x6c ../ccs/Debug/driverlib.lib(sysctl.obj)
 .debug_abbrev  0x000000000000434a       0x6e ../ccs/Debug/driverlib.lib(sysctl.obj)
 .debug_abbrev  0x00000000000043b8       0x6e ../ccs/Debug/driverlib.lib(sysctl.obj)
 .debug_abbrev  0x0000000000004426       0x6c ../ccs/Debug/driverlib.lib(sysctl.obj)
 .debug_abbrev  0x0000000000004492       0x6c ../ccs/Debug/driverlib.lib(sysctl.obj)
 .debug_abbrev  0x00000000000044fe       0x6c ../ccs/Debug/driverlib.lib(sysctl.obj)
 .debug_abbrev  0x000000000000456a       0x6c ../ccs/Debug/driverlib.lib(sysctl.obj)
 .debug_abbrev  0x00000000000045d6       0x6c ../ccs/Debug/driverlib.lib(sysctl.obj)
 .debug_abbrev  0x0000000000004642       0x6c ../ccs/Debug/driverlib.lib(sysctl.obj)
 .debug_abbrev  0x00000000000046ae       0x6c ../ccs/Debug/driverlib.lib(sysctl.obj)
 .debug_abbrev  0x000000000000471a       0x6c ../ccs/Debug/driverlib.lib(sysctl.obj)
 .debug_abbrev  0x0000000000004786       0x52 ../ccs/Debug/driverlib.lib(sysctl.obj)
 .debug_abbrev  0x00000000000047d8       0x6e ../ccs/Debug/driverlib.lib(sysctl.obj)
 .debug_abbrev  0x0000000000004846       0x52 ../ccs/Debug/driverlib.lib(sysctl.obj)
 .debug_abbrev  0x0000000000004898       0x6c ../ccs/Debug/driverlib.lib(sysctl.obj)
 .debug_abbrev  0x0000000000004904       0x6c ../ccs/Debug/driverlib.lib(sysctl.obj)
 .debug_abbrev  0x0000000000004970       0x6c ../ccs/Debug/driverlib.lib(sysctl.obj)
 .debug_abbrev  0x00000000000049dc       0x52 ../ccs/Debug/driverlib.lib(sysctl.obj)
 .debug_abbrev  0x0000000000004a2e       0x6c ../ccs/Debug/driverlib.lib(sysctl.obj)
 .debug_abbrev  0x0000000000004a9a       0x52 ../ccs/Debug/driverlib.lib(sysctl.obj)
 .debug_abbrev  0x0000000000004aec       0x5e ../ccs/Debug/driverlib.lib(sysctl.obj)
 .debug_abbrev  0x0000000000004b4a       0x6e ../ccs/Debug/driverlib.lib(sysctl.obj)
 .debug_abbrev  0x0000000000004bb8       0x7a ../ccs/Debug/driverlib.lib(sysctl.obj)
 .debug_abbrev  0x0000000000004c32       0x6c ../ccs/Debug/driverlib.lib(sysctl.obj)
 .debug_abbrev  0x0000000000004c9e       0x6c ../ccs/Debug/driverlib.lib(sysctl.obj)
 .debug_abbrev  0x0000000000004d0a       0x6c ../ccs/Debug/driverlib.lib(sysctl.obj)
 .debug_abbrev  0x0000000000004d76       0x6c ../ccs/Debug/driverlib.lib(sysctl.obj)
 .debug_abbrev  0x0000000000004de2       0x6c ../ccs/Debug/driverlib.lib(sysctl.obj)
 .debug_abbrev  0x0000000000004e4e       0x52 ../ccs/Debug/driverlib.lib(sysctl.obj)
 .debug_abbrev  0x0000000000004ea0       0x52 ../ccs/Debug/driverlib.lib(sysctl.obj)
 .debug_abbrev  0x0000000000004ef2       0x6c ../ccs/Debug/driverlib.lib(sysctl.obj)
 .debug_abbrev  0x0000000000004f5e       0x6c ../ccs/Debug/driverlib.lib(sysctl.obj)
 .debug_abbrev  0x0000000000004fca       0x6c ../ccs/Debug/driverlib.lib(sysctl.obj)
 .debug_abbrev  0x0000000000005036       0x5e ../ccs/Debug/driverlib.lib(sysctl.obj)
 .debug_abbrev  0x0000000000005094       0x7a ../ccs/Debug/driverlib.lib(sysctl.obj)
 .debug_abbrev  0x000000000000510e       0x6c ../ccs/Debug/driverlib.lib(sysctl.obj)
 .debug_abbrev  0x000000000000517a       0x60 ../ccs/Debug/driverlib.lib(sysctl.obj)
 .debug_abbrev  0x00000000000051da       0x6c ../ccs/Debug/driverlib.lib(sysctl.obj)
 .debug_abbrev  0x0000000000005246       0x6c ../ccs/Debug/driverlib.lib(sysctl.obj)
 .debug_abbrev  0x00000000000052b2       0x7c ../ccs/Debug/driverlib.lib(sysctl.obj)
 .debug_abbrev  0x000000000000532e       0x6c ../ccs/Debug/driverlib.lib(sysctl.obj)
 .debug_abbrev  0x000000000000539a       0x49 ../ccs/Debug/driverlib.lib(sysctl.obj)
 .debug_abbrev  0x00000000000053e3       0x1c ../ccs/Debug/driverlib.lib(cpu.obj)
 .debug_abbrev  0x00000000000053ff       0x50 ../ccs/Debug/driverlib.lib(cpu.obj)
 .debug_abbrev  0x000000000000544f       0x52 ../ccs/Debug/driverlib.lib(cpu.obj)
 .debug_abbrev  0x00000000000054a1       0x52 ../ccs/Debug/driverlib.lib(cpu.obj)
 .debug_abbrev  0x00000000000054f3       0x52 ../ccs/Debug/driverlib.lib(cpu.obj)
 .debug_abbrev  0x0000000000005545       0x5e ../ccs/Debug/driverlib.lib(cpu.obj)
 .debug_abbrev  0x00000000000055a3       0x52 ../ccs/Debug/driverlib.lib(cpu.obj)
 .debug_abbrev  0x00000000000055f5       0x1f ../ccs/Debug/driverlib.lib(cpu.obj)
 .debug_abbrev  0x0000000000005614       0x24 ../ccs/Debug/driverlib.lib(cpu.obj)

.debug_aranges  0x0000000000000000     0x1820
 .debug_aranges
                0x0000000000000000       0xe8 ./main.o
 .debug_aranges
                0x00000000000000e8       0x38 ./tm4c123gh6pm_startup_ccs_gcc.o
 .debug_aranges
                0x0000000000000120       0x20 ../ccs/Debug/driverlib.lib(gpio.obj)
 .debug_aranges
                0x0000000000000140       0x20 ../ccs/Debug/driverlib.lib(gpio.obj)
 .debug_aranges
                0x0000000000000160       0x20 ../ccs/Debug/driverlib.lib(gpio.obj)
 .debug_aranges
                0x0000000000000180       0x20 ../ccs/Debug/driverlib.lib(gpio.obj)
 .debug_aranges
                0x00000000000001a0       0x20 ../ccs/Debug/driverlib.lib(gpio.obj)
 .debug_aranges
                0x00000000000001c0       0x20 ../ccs/Debug/driverlib.lib(gpio.obj)
 .debug_aranges
                0x00000000000001e0       0x20 ../ccs/Debug/driverlib.lib(gpio.obj)
 .debug_aranges
                0x0000000000000200       0x20 ../ccs/Debug/driverlib.lib(gpio.obj)
 .debug_aranges
                0x0000000000000220       0x20 ../ccs/Debug/driverlib.lib(gpio.obj)
 .debug_aranges
                0x0000000000000240       0x20 ../ccs/Debug/driverlib.lib(gpio.obj)
 .debug_aranges
                0x0000000000000260       0x20 ../ccs/Debug/driverlib.lib(gpio.obj)
 .debug_aranges
                0x0000000000000280       0x20 ../ccs/Debug/driverlib.lib(gpio.obj)
 .debug_aranges
                0x00000000000002a0       0x20 ../ccs/Debug/driverlib.lib(gpio.obj)
 .debug_aranges
                0x00000000000002c0       0x20 ../ccs/Debug/driverlib.lib(gpio.obj)
 .debug_aranges
                0x00000000000002e0       0x20 ../ccs/Debug/driverlib.lib(gpio.obj)
 .debug_aranges
                0x0000000000000300       0x20 ../ccs/Debug/driverlib.lib(gpio.obj)
 .debug_aranges
                0x0000000000000320       0x20 ../ccs/Debug/driverlib.lib(gpio.obj)
 .debug_aranges
                0x0000000000000340       0x20 ../ccs/Debug/driverlib.lib(gpio.obj)
 .debug_aranges
                0x0000000000000360       0x20 ../ccs/Debug/driverlib.lib(gpio.obj)
 .debug_aranges
                0x0000000000000380       0x20 ../ccs/Debug/driverlib.lib(gpio.obj)
 .debug_aranges
                0x00000000000003a0       0x20 ../ccs/Debug/driverlib.lib(gpio.obj)
 .debug_aranges
                0x00000000000003c0       0x20 ../ccs/Debug/driverlib.lib(gpio.obj)
 .debug_aranges
                0x00000000000003e0       0x20 ../ccs/Debug/driverlib.lib(gpio.obj)
 .debug_aranges
                0x0000000000000400       0x20 ../ccs/Debug/driverlib.lib(gpio.obj)
 .debug_aranges
                0x0000000000000420       0x20 ../ccs/Debug/driverlib.lib(gpio.obj)
 .debug_aranges
                0x0000000000000440       0x20 ../ccs/Debug/driverlib.lib(gpio.obj)
 .debug_aranges
                0x0000000000000460       0x20 ../ccs/Debug/driverlib.lib(gpio.obj)
 .debug_aranges
                0x0000000000000480       0x20 ../ccs/Debug/driverlib.lib(gpio.obj)
 .debug_aranges
                0x00000000000004a0       0x20 ../ccs/Debug/driverlib.lib(gpio.obj)
 .debug_aranges
                0x00000000000004c0       0x20 ../ccs/Debug/driverlib.lib(gpio.obj)
 .debug_aranges
                0x00000000000004e0       0x20 ../ccs/Debug/driverlib.lib(gpio.obj)
 .debug_aranges
                0x0000000000000500       0x20 ../ccs/Debug/driverlib.lib(gpio.obj)
 .debug_aranges
                0x0000000000000520       0x20 ../ccs/Debug/driverlib.lib(gpio.obj)
 .debug_aranges
                0x0000000000000540       0x20 ../ccs/Debug/driverlib.lib(gpio.obj)
 .debug_aranges
                0x0000000000000560       0x20 ../ccs/Debug/driverlib.lib(gpio.obj)
 .debug_aranges
                0x0000000000000580       0x20 ../ccs/Debug/driverlib.lib(gpio.obj)
 .debug_aranges
                0x00000000000005a0       0x20 ../ccs/Debug/driverlib.lib(gpio.obj)
 .debug_aranges
                0x00000000000005c0       0x20 ../ccs/Debug/driverlib.lib(gpio.obj)
 .debug_aranges
                0x00000000000005e0       0x20 ../ccs/Debug/driverlib.lib(gpio.obj)
 .debug_aranges
                0x0000000000000600       0x20 ../ccs/Debug/driverlib.lib(gpio.obj)
 .debug_aranges
                0x0000000000000620       0x20 ../ccs/Debug/driverlib.lib(gpio.obj)
 .debug_aranges
                0x0000000000000640       0x20 ../ccs/Debug/driverlib.lib(gpio.obj)
 .debug_aranges
                0x0000000000000660       0x20 ../ccs/Debug/driverlib.lib(gpio.obj)
 .debug_aranges
                0x0000000000000680       0x20 ../ccs/Debug/driverlib.lib(gpio.obj)
 .debug_aranges
                0x00000000000006a0       0x20 ../ccs/Debug/driverlib.lib(gpio.obj)
 .debug_aranges
                0x00000000000006c0       0x20 ../ccs/Debug/driverlib.lib(gpio.obj)
 .debug_aranges
                0x00000000000006e0       0x20 ../ccs/Debug/driverlib.lib(gpio.obj)
 .debug_aranges
                0x0000000000000700       0x20 ../ccs/Debug/driverlib.lib(gpio.obj)
 .debug_aranges
                0x0000000000000720       0x20 ../ccs/Debug/driverlib.lib(gpio.obj)
 .debug_aranges
                0x0000000000000740       0x20 ../ccs/Debug/driverlib.lib(i2c.obj)
 .debug_aranges
                0x0000000000000760       0x20 ../ccs/Debug/driverlib.lib(i2c.obj)
 .debug_aranges
                0x0000000000000780       0x20 ../ccs/Debug/driverlib.lib(i2c.obj)
 .debug_aranges
                0x00000000000007a0       0x20 ../ccs/Debug/driverlib.lib(i2c.obj)
 .debug_aranges
                0x00000000000007c0       0x20 ../ccs/Debug/driverlib.lib(i2c.obj)
 .debug_aranges
                0x00000000000007e0       0x20 ../ccs/Debug/driverlib.lib(i2c.obj)
 .debug_aranges
                0x0000000000000800       0x20 ../ccs/Debug/driverlib.lib(i2c.obj)
 .debug_aranges
                0x0000000000000820       0x20 ../ccs/Debug/driverlib.lib(i2c.obj)
 .debug_aranges
                0x0000000000000840       0x20 ../ccs/Debug/driverlib.lib(i2c.obj)
 .debug_aranges
                0x0000000000000860       0x20 ../ccs/Debug/driverlib.lib(i2c.obj)
 .debug_aranges
                0x0000000000000880       0x20 ../ccs/Debug/driverlib.lib(i2c.obj)
 .debug_aranges
                0x00000000000008a0       0x20 ../ccs/Debug/driverlib.lib(i2c.obj)
 .debug_aranges
                0x00000000000008c0       0x20 ../ccs/Debug/driverlib.lib(i2c.obj)
 .debug_aranges
                0x00000000000008e0       0x20 ../ccs/Debug/driverlib.lib(i2c.obj)
 .debug_aranges
                0x0000000000000900       0x20 ../ccs/Debug/driverlib.lib(i2c.obj)
 .debug_aranges
                0x0000000000000920       0x20 ../ccs/Debug/driverlib.lib(i2c.obj)
 .debug_aranges
                0x0000000000000940       0x20 ../ccs/Debug/driverlib.lib(i2c.obj)
 .debug_aranges
                0x0000000000000960       0x20 ../ccs/Debug/driverlib.lib(i2c.obj)
 .debug_aranges
                0x0000000000000980       0x20 ../ccs/Debug/driverlib.lib(i2c.obj)
 .debug_aranges
                0x00000000000009a0       0x20 ../ccs/Debug/driverlib.lib(i2c.obj)
 .debug_aranges
                0x00000000000009c0       0x20 ../ccs/Debug/driverlib.lib(i2c.obj)
 .debug_aranges
                0x00000000000009e0       0x20 ../ccs/Debug/driverlib.lib(i2c.obj)
 .debug_aranges
                0x0000000000000a00       0x20 ../ccs/Debug/driverlib.lib(i2c.obj)
 .debug_aranges
                0x0000000000000a20       0x20 ../ccs/Debug/driverlib.lib(i2c.obj)
 .debug_aranges
                0x0000000000000a40       0x20 ../ccs/Debug/driverlib.lib(i2c.obj)
 .debug_aranges
                0x0000000000000a60       0x20 ../ccs/Debug/driverlib.lib(i2c.obj)
 .debug_aranges
                0x0000000000000a80       0x20 ../ccs/Debug/driverlib.lib(i2c.obj)
 .debug_aranges
                0x0000000000000aa0       0x20 ../ccs/Debug/driverlib.lib(i2c.obj)
 .debug_aranges
                0x0000000000000ac0       0x20 ../ccs/Debug/driverlib.lib(i2c.obj)
 .debug_aranges
                0x0000000000000ae0       0x20 ../ccs/Debug/driverlib.lib(i2c.obj)
 .debug_aranges
                0x0000000000000b00       0x20 ../ccs/Debug/driverlib.lib(i2c.obj)
 .debug_aranges
                0x0000000000000b20       0x20 ../ccs/Debug/driverlib.lib(i2c.obj)
 .debug_aranges
                0x0000000000000b40       0x20 ../ccs/Debug/driverlib.lib(i2c.obj)
 .debug_aranges
                0x0000000000000b60       0x20 ../ccs/Debug/driverlib.lib(i2c.obj)
 .debug_aranges
                0x0000000000000b80       0x20 ../ccs/Debug/driverlib.lib(i2c.obj)
 .debug_aranges
                0x0000000000000ba0       0x20 ../ccs/Debug/driverlib.lib(i2c.obj)
 .debug_aranges
                0x0000000000000bc0       0x20 ../ccs/Debug/driverlib.lib(i2c.obj)
 .debug_aranges
                0x0000000000000be0       0x20 ../ccs/Debug/driverlib.lib(i2c.obj)
 .debug_aranges
                0x0000000000000c00       0x20 ../ccs/Debug/driverlib.lib(i2c.obj)
 .debug_aranges
                0x0000000000000c20       0x20 ../ccs/Debug/driverlib.lib(i2c.obj)
 .debug_aranges
                0x0000000000000c40       0x20 ../ccs/Debug/driverlib.lib(i2c.obj)
 .debug_aranges
                0x0000000000000c60       0x20 ../ccs/Debug/driverlib.lib(i2c.obj)
 .debug_aranges
                0x0000000000000c80       0x20 ../ccs/Debug/driverlib.lib(i2c.obj)
 .debug_aranges
                0x0000000000000ca0       0x20 ../ccs/Debug/driverlib.lib(i2c.obj)
 .debug_aranges
                0x0000000000000cc0       0x20 ../ccs/Debug/driverlib.lib(i2c.obj)
 .debug_aranges
                0x0000000000000ce0       0x20 ../ccs/Debug/driverlib.lib(i2c.obj)
 .debug_aranges
                0x0000000000000d00       0x20 ../ccs/Debug/driverlib.lib(i2c.obj)
 .debug_aranges
                0x0000000000000d20       0x20 ../ccs/Debug/driverlib.lib(i2c.obj)
 .debug_aranges
                0x0000000000000d40       0x20 ../ccs/Debug/driverlib.lib(i2c.obj)
 .debug_aranges
                0x0000000000000d60       0x20 ../ccs/Debug/driverlib.lib(i2c.obj)
 .debug_aranges
                0x0000000000000d80       0x20 ../ccs/Debug/driverlib.lib(i2c.obj)
 .debug_aranges
                0x0000000000000da0       0x20 ../ccs/Debug/driverlib.lib(i2c.obj)
 .debug_aranges
                0x0000000000000dc0       0x20 ../ccs/Debug/driverlib.lib(i2c.obj)
 .debug_aranges
                0x0000000000000de0       0x20 ../ccs/Debug/driverlib.lib(i2c.obj)
 .debug_aranges
                0x0000000000000e00       0x20 ../ccs/Debug/driverlib.lib(i2c.obj)
 .debug_aranges
                0x0000000000000e20       0x20 ../ccs/Debug/driverlib.lib(interrupt.obj)
 .debug_aranges
                0x0000000000000e40       0x20 ../ccs/Debug/driverlib.lib(interrupt.obj)
 .debug_aranges
                0x0000000000000e60       0x20 ../ccs/Debug/driverlib.lib(interrupt.obj)
 .debug_aranges
                0x0000000000000e80       0x20 ../ccs/Debug/driverlib.lib(interrupt.obj)
 .debug_aranges
                0x0000000000000ea0       0x20 ../ccs/Debug/driverlib.lib(interrupt.obj)
 .debug_aranges
                0x0000000000000ec0       0x20 ../ccs/Debug/driverlib.lib(interrupt.obj)
 .debug_aranges
                0x0000000000000ee0       0x20 ../ccs/Debug/driverlib.lib(interrupt.obj)
 .debug_aranges
                0x0000000000000f00       0x20 ../ccs/Debug/driverlib.lib(interrupt.obj)
 .debug_aranges
                0x0000000000000f20       0x20 ../ccs/Debug/driverlib.lib(interrupt.obj)
 .debug_aranges
                0x0000000000000f40       0x20 ../ccs/Debug/driverlib.lib(interrupt.obj)
 .debug_aranges
                0x0000000000000f60       0x20 ../ccs/Debug/driverlib.lib(interrupt.obj)
 .debug_aranges
                0x0000000000000f80       0x20 ../ccs/Debug/driverlib.lib(interrupt.obj)
 .debug_aranges
                0x0000000000000fa0       0x20 ../ccs/Debug/driverlib.lib(interrupt.obj)
 .debug_aranges
                0x0000000000000fc0       0x20 ../ccs/Debug/driverlib.lib(interrupt.obj)
 .debug_aranges
                0x0000000000000fe0       0x20 ../ccs/Debug/driverlib.lib(interrupt.obj)
 .debug_aranges
                0x0000000000001000       0x20 ../ccs/Debug/driverlib.lib(interrupt.obj)
 .debug_aranges
                0x0000000000001020       0x20 ../ccs/Debug/driverlib.lib(interrupt.obj)
 .debug_aranges
                0x0000000000001040       0x20 ../ccs/Debug/driverlib.lib(sysctl.obj)
 .debug_aranges
                0x0000000000001060       0x20 ../ccs/Debug/driverlib.lib(sysctl.obj)
 .debug_aranges
                0x0000000000001080       0x20 ../ccs/Debug/driverlib.lib(sysctl.obj)
 .debug_aranges
                0x00000000000010a0       0x20 ../ccs/Debug/driverlib.lib(sysctl.obj)
 .debug_aranges
                0x00000000000010c0       0x20 ../ccs/Debug/driverlib.lib(sysctl.obj)
 .debug_aranges
                0x00000000000010e0       0x20 ../ccs/Debug/driverlib.lib(sysctl.obj)
 .debug_aranges
                0x0000000000001100       0x20 ../ccs/Debug/driverlib.lib(sysctl.obj)
 .debug_aranges
                0x0000000000001120       0x20 ../ccs/Debug/driverlib.lib(sysctl.obj)
 .debug_aranges
                0x0000000000001140       0x20 ../ccs/Debug/driverlib.lib(sysctl.obj)
 .debug_aranges
                0x0000000000001160       0x20 ../ccs/Debug/driverlib.lib(sysctl.obj)
 .debug_aranges
                0x0000000000001180       0x20 ../ccs/Debug/driverlib.lib(sysctl.obj)
 .debug_aranges
                0x00000000000011a0       0x20 ../ccs/Debug/driverlib.lib(sysctl.obj)
 .debug_aranges
                0x00000000000011c0       0x20 ../ccs/Debug/driverlib.lib(sysctl.obj)
 .debug_aranges
                0x00000000000011e0       0x20 ../ccs/Debug/driverlib.lib(sysctl.obj)
 .debug_aranges
                0x0000000000001200       0x20 ../ccs/Debug/driverlib.lib(sysctl.obj)
 .debug_aranges
                0x0000000000001220       0x20 ../ccs/Debug/driverlib.lib(sysctl.obj)
 .debug_aranges
                0x0000000000001240       0x20 ../ccs/Debug/driverlib.lib(sysctl.obj)
 .debug_aranges
                0x0000000000001260       0x20 ../ccs/Debug/driverlib.lib(sysctl.obj)
 .debug_aranges
                0x0000000000001280       0x20 ../ccs/Debug/driverlib.lib(sysctl.obj)
 .debug_aranges
                0x00000000000012a0       0x20 ../ccs/Debug/driverlib.lib(sysctl.obj)
 .debug_aranges
                0x00000000000012c0       0x20 ../ccs/Debug/driverlib.lib(sysctl.obj)
 .debug_aranges
                0x00000000000012e0       0x20 ../ccs/Debug/driverlib.lib(sysctl.obj)
 .debug_aranges
                0x0000000000001300       0x20 ../ccs/Debug/driverlib.lib(sysctl.obj)
 .debug_aranges
                0x0000000000001320       0x20 ../ccs/Debug/driverlib.lib(sysctl.obj)
 .debug_aranges
                0x0000000000001340       0x20 ../ccs/Debug/driverlib.lib(sysctl.obj)
 .debug_aranges
                0x0000000000001360       0x20 ../ccs/Debug/driverlib.lib(sysctl.obj)
 .debug_aranges
                0x0000000000001380       0x20 ../ccs/Debug/driverlib.lib(sysctl.obj)
 .debug_aranges
                0x00000000000013a0       0x20 ../ccs/Debug/driverlib.lib(sysctl.obj)
 .debug_aranges
                0x00000000000013c0       0x20 ../ccs/Debug/driverlib.lib(sysctl.obj)
 .debug_aranges
                0x00000000000013e0       0x20 ../ccs/Debug/driverlib.lib(sysctl.obj)
 .debug_aranges
                0x0000000000001400       0x20 ../ccs/Debug/driverlib.lib(sysctl.obj)
 .debug_aranges
                0x0000000000001420       0x20 ../ccs/Debug/driverlib.lib(sysctl.obj)
 .debug_aranges
                0x0000000000001440       0x20 ../ccs/Debug/driverlib.lib(sysctl.obj)
 .debug_aranges
                0x0000000000001460       0x20 ../ccs/Debug/driverlib.lib(sysctl.obj)
 .debug_aranges
                0x0000000000001480       0x20 ../ccs/Debug/driverlib.lib(sysctl.obj)
 .debug_aranges
                0x00000000000014a0       0x20 ../ccs/Debug/driverlib.lib(sysctl.obj)
 .debug_aranges
                0x00000000000014c0       0x20 ../ccs/Debug/driverlib.lib(sysctl.obj)
 .debug_aranges
                0x00000000000014e0       0x20 ../ccs/Debug/driverlib.lib(sysctl.obj)
 .debug_aranges
                0x0000000000001500       0x20 ../ccs/Debug/driverlib.lib(sysctl.obj)
 .debug_aranges
                0x0000000000001520       0x20 ../ccs/Debug/driverlib.lib(sysctl.obj)
 .debug_aranges
                0x0000000000001540       0x20 ../ccs/Debug/driverlib.lib(sysctl.obj)
 .debug_aranges
                0x0000000000001560       0x20 ../ccs/Debug/driverlib.lib(sysctl.obj)
 .debug_aranges
                0x0000000000001580       0x20 ../ccs/Debug/driverlib.lib(sysctl.obj)
 .debug_aranges
                0x00000000000015a0       0x20 ../ccs/Debug/driverlib.lib(sysctl.obj)
 .debug_aranges
                0x00000000000015c0       0x20 ../ccs/Debug/driverlib.lib(sysctl.obj)
 .debug_aranges
                0x00000000000015e0       0x20 ../ccs/Debug/driverlib.lib(sysctl.obj)
 .debug_aranges
                0x0000000000001600       0x20 ../ccs/Debug/driverlib.lib(sysctl.obj)
 .debug_aranges
                0x0000000000001620       0x20 ../ccs/Debug/driverlib.lib(sysctl.obj)
 .debug_aranges
                0x0000000000001640       0x20 ../ccs/Debug/driverlib.lib(sysctl.obj)
 .debug_aranges
                0x0000000000001660       0x20 ../ccs/Debug/driverlib.lib(sysctl.obj)
 .debug_aranges
                0x0000000000001680       0x20 ../ccs/Debug/driverlib.lib(sysctl.obj)
 .debug_aranges
                0x00000000000016a0       0x20 ../ccs/Debug/driverlib.lib(sysctl.obj)
 .debug_aranges
                0x00000000000016c0       0x20 ../ccs/Debug/driverlib.lib(sysctl.obj)
 .debug_aranges
                0x00000000000016e0       0x20 ../ccs/Debug/driverlib.lib(sysctl.obj)
 .debug_aranges
                0x0000000000001700       0x20 ../ccs/Debug/driverlib.lib(sysctl.obj)
 .debug_aranges
                0x0000000000001720       0x20 ../ccs/Debug/driverlib.lib(sysctl.obj)
 .debug_aranges
                0x0000000000001740       0x20 ../ccs/Debug/driverlib.lib(sysctl.obj)
 .debug_aranges
                0x0000000000001760       0x20 ../ccs/Debug/driverlib.lib(cpu.obj)
 .debug_aranges
                0x0000000000001780       0x20 ../ccs/Debug/driverlib.lib(cpu.obj)
 .debug_aranges
                0x00000000000017a0       0x20 ../ccs/Debug/driverlib.lib(cpu.obj)
 .debug_aranges
                0x00000000000017c0       0x20 ../ccs/Debug/driverlib.lib(cpu.obj)
 .debug_aranges
                0x00000000000017e0       0x20 ../ccs/Debug/driverlib.lib(cpu.obj)
 .debug_aranges
                0x0000000000001800       0x20 ../ccs/Debug/driverlib.lib(cpu.obj)

.debug_ranges   0x0000000000000000      0x100
 .debug_ranges  0x0000000000000000       0xd8 ./main.o
 .debug_ranges  0x00000000000000d8       0x28 ./tm4c123gh6pm_startup_ccs_gcc.o

.debug_line     0x0000000000000000     0x8378
 .debug_line    0x0000000000000000      0x64a ./main.o
 .debug_line    0x000000000000064a      0x173 ./tm4c123gh6pm_startup_ccs_gcc.o
 .debug_line    0x00000000000007bd       0x82 ../ccs/Debug/driverlib.lib(gpio.obj)
 .debug_line    0x000000000000083f       0x7d ../ccs/Debug/driverlib.lib(gpio.obj)
 .debug_line    0x00000000000008bc       0x7d ../ccs/Debug/driverlib.lib(gpio.obj)
 .debug_line    0x0000000000000939       0x7d ../ccs/Debug/driverlib.lib(gpio.obj)
 .debug_line    0x00000000000009b6       0x7d ../ccs/Debug/driverlib.lib(gpio.obj)
 .debug_line    0x0000000000000a33       0x92 ../ccs/Debug/driverlib.lib(gpio.obj)
 .debug_line    0x0000000000000ac5       0x92 ../ccs/Debug/driverlib.lib(gpio.obj)
 .debug_line    0x0000000000000b57       0x95 ../ccs/Debug/driverlib.lib(gpio.obj)
 .debug_line    0x0000000000000bec       0xd1 ../ccs/Debug/driverlib.lib(gpio.obj)
 .debug_line    0x0000000000000cbd       0x93 ../ccs/Debug/driverlib.lib(gpio.obj)
 .debug_line    0x0000000000000d50       0x93 ../ccs/Debug/driverlib.lib(gpio.obj)
 .debug_line    0x0000000000000de3       0x93 ../ccs/Debug/driverlib.lib(gpio.obj)
 .debug_line    0x0000000000000e76       0x93 ../ccs/Debug/driverlib.lib(gpio.obj)
 .debug_line    0x0000000000000f09       0x93 ../ccs/Debug/driverlib.lib(gpio.obj)
 .debug_line    0x0000000000000f9c       0x93 ../ccs/Debug/driverlib.lib(gpio.obj)
 .debug_line    0x000000000000102f       0x93 ../ccs/Debug/driverlib.lib(gpio.obj)
 .debug_line    0x00000000000010c2       0x93 ../ccs/Debug/driverlib.lib(gpio.obj)
 .debug_line    0x0000000000001155       0x93 ../ccs/Debug/driverlib.lib(gpio.obj)
 .debug_line    0x00000000000011e8       0x93 ../ccs/Debug/driverlib.lib(gpio.obj)
 .debug_line    0x000000000000127b       0x93 ../ccs/Debug/driverlib.lib(gpio.obj)
 .debug_line    0x000000000000130e       0x93 ../ccs/Debug/driverlib.lib(gpio.obj)
 .debug_line    0x00000000000013a1       0x93 ../ccs/Debug/driverlib.lib(gpio.obj)
 .debug_line    0x0000000000001434       0x93 ../ccs/Debug/driverlib.lib(gpio.obj)
 .debug_line    0x00000000000014c7       0x93 ../ccs/Debug/driverlib.lib(gpio.obj)
 .debug_line    0x000000000000155a       0x99 ../ccs/Debug/driverlib.lib(gpio.obj)
 .debug_line    0x00000000000015f3       0x99 ../ccs/Debug/driverlib.lib(gpio.obj)
 .debug_line    0x000000000000168c       0x93 ../ccs/Debug/driverlib.lib(gpio.obj)
 .debug_line    0x000000000000171f       0x93 ../ccs/Debug/driverlib.lib(gpio.obj)
 .debug_line    0x00000000000017b2       0x93 ../ccs/Debug/driverlib.lib(gpio.obj)
 .debug_line    0x0000000000001845       0x93 ../ccs/Debug/driverlib.lib(gpio.obj)
 .debug_line    0x00000000000018d8       0x93 ../ccs/Debug/driverlib.lib(gpio.obj)
 .debug_line    0x000000000000196b       0x93 ../ccs/Debug/driverlib.lib(gpio.obj)
 .debug_line    0x00000000000019fe       0x93 ../ccs/Debug/driverlib.lib(gpio.obj)
 .debug_line    0x0000000000001a91       0x93 ../ccs/Debug/driverlib.lib(gpio.obj)
 .debug_line    0x0000000000001b24       0x93 ../ccs/Debug/driverlib.lib(gpio.obj)
 .debug_line    0x0000000000001bb7       0x92 ../ccs/Debug/driverlib.lib(gpio.obj)
 .debug_line    0x0000000000001c49       0xa7 ../ccs/Debug/driverlib.lib(gpio.obj)
 .debug_line    0x0000000000001cf0       0xa5 ../ccs/Debug/driverlib.lib(gpio.obj)
 .debug_line    0x0000000000001d95       0xa6 ../ccs/Debug/driverlib.lib(gpio.obj)
 .debug_line    0x0000000000001e3b       0x94 ../ccs/Debug/driverlib.lib(gpio.obj)
 .debug_line    0x0000000000001ecf       0x94 ../ccs/Debug/driverlib.lib(gpio.obj)
 .debug_line    0x0000000000001f63       0x99 ../ccs/Debug/driverlib.lib(gpio.obj)
 .debug_line    0x0000000000001ffc       0x99 ../ccs/Debug/driverlib.lib(gpio.obj)
 .debug_line    0x0000000000002095       0x92 ../ccs/Debug/driverlib.lib(gpio.obj)
 .debug_line    0x0000000000002127       0x99 ../ccs/Debug/driverlib.lib(gpio.obj)
 .debug_line    0x00000000000021c0       0x99 ../ccs/Debug/driverlib.lib(gpio.obj)
 .debug_line    0x0000000000002259       0x92 ../ccs/Debug/driverlib.lib(gpio.obj)
 .debug_line    0x00000000000022eb       0x92 ../ccs/Debug/driverlib.lib(gpio.obj)
 .debug_line    0x000000000000237d       0x92 ../ccs/Debug/driverlib.lib(gpio.obj)
 .debug_line    0x000000000000240f       0x97 ../ccs/Debug/driverlib.lib(gpio.obj)
 .debug_line    0x00000000000024a6       0x92 ../ccs/Debug/driverlib.lib(gpio.obj)
 .debug_line    0x0000000000002538       0x92 ../ccs/Debug/driverlib.lib(gpio.obj)
 .debug_line    0x00000000000025ca       0x92 ../ccs/Debug/driverlib.lib(gpio.obj)
 .debug_line    0x000000000000265c       0x92 ../ccs/Debug/driverlib.lib(gpio.obj)
 .debug_line    0x00000000000026ee       0x20 ../ccs/Debug/driverlib.lib(gpio.obj)
 .debug_line    0x000000000000270e       0x69 ../ccs/Debug/driverlib.lib(gpio.obj)
 .debug_line    0x0000000000002777       0x68 ../ccs/Debug/driverlib.lib(gpio.obj)
 .debug_line    0x00000000000027df       0x7d ../ccs/Debug/driverlib.lib(gpio.obj)
 .debug_line    0x000000000000285c       0x69 ../ccs/Debug/driverlib.lib(gpio.obj)
 .debug_line    0x00000000000028c5       0x82 ../ccs/Debug/driverlib.lib(i2c.obj)
 .debug_line    0x0000000000002947       0x7c ../ccs/Debug/driverlib.lib(i2c.obj)
 .debug_line    0x00000000000029c3       0x7c ../ccs/Debug/driverlib.lib(i2c.obj)
 .debug_line    0x0000000000002a3f       0x7c ../ccs/Debug/driverlib.lib(i2c.obj)
 .debug_line    0x0000000000002abb       0x91 ../ccs/Debug/driverlib.lib(i2c.obj)
 .debug_line    0x0000000000002b4c       0x92 ../ccs/Debug/driverlib.lib(i2c.obj)
 .debug_line    0x0000000000002bde       0x91 ../ccs/Debug/driverlib.lib(i2c.obj)
 .debug_line    0x0000000000002c6f       0x91 ../ccs/Debug/driverlib.lib(i2c.obj)
 .debug_line    0x0000000000002d00       0x91 ../ccs/Debug/driverlib.lib(i2c.obj)
 .debug_line    0x0000000000002d91       0x91 ../ccs/Debug/driverlib.lib(i2c.obj)
 .debug_line    0x0000000000002e22       0x91 ../ccs/Debug/driverlib.lib(i2c.obj)
 .debug_line    0x0000000000002eb3       0x91 ../ccs/Debug/driverlib.lib(i2c.obj)
 .debug_line    0x0000000000002f44       0x91 ../ccs/Debug/driverlib.lib(i2c.obj)
 .debug_line    0x0000000000002fd5       0x91 ../ccs/Debug/driverlib.lib(i2c.obj)
 .debug_line    0x0000000000003066       0x91 ../ccs/Debug/driverlib.lib(i2c.obj)
 .debug_line    0x00000000000030f7       0x92 ../ccs/Debug/driverlib.lib(i2c.obj)
 .debug_line    0x0000000000003189       0x92 ../ccs/Debug/driverlib.lib(i2c.obj)
 .debug_line    0x000000000000321b       0x91 ../ccs/Debug/driverlib.lib(i2c.obj)
 .debug_line    0x00000000000032ac       0x91 ../ccs/Debug/driverlib.lib(i2c.obj)
 .debug_line    0x000000000000333d       0x92 ../ccs/Debug/driverlib.lib(i2c.obj)
 .debug_line    0x00000000000033cf       0x91 ../ccs/Debug/driverlib.lib(i2c.obj)
 .debug_line    0x0000000000003460       0x91 ../ccs/Debug/driverlib.lib(i2c.obj)
 .debug_line    0x00000000000034f1       0x95 ../ccs/Debug/driverlib.lib(i2c.obj)
 .debug_line    0x0000000000003586       0x95 ../ccs/Debug/driverlib.lib(i2c.obj)
 .debug_line    0x000000000000361b       0x95 ../ccs/Debug/driverlib.lib(i2c.obj)
 .debug_line    0x00000000000036b0       0x91 ../ccs/Debug/driverlib.lib(i2c.obj)
 .debug_line    0x0000000000003741       0x92 ../ccs/Debug/driverlib.lib(i2c.obj)
 .debug_line    0x00000000000037d3       0x91 ../ccs/Debug/driverlib.lib(i2c.obj)
 .debug_line    0x0000000000003864       0x91 ../ccs/Debug/driverlib.lib(i2c.obj)
 .debug_line    0x00000000000038f5       0x91 ../ccs/Debug/driverlib.lib(i2c.obj)
 .debug_line    0x0000000000003986       0x91 ../ccs/Debug/driverlib.lib(i2c.obj)
 .debug_line    0x0000000000003a17       0x91 ../ccs/Debug/driverlib.lib(i2c.obj)
 .debug_line    0x0000000000003aa8       0x91 ../ccs/Debug/driverlib.lib(i2c.obj)
 .debug_line    0x0000000000003b39       0x91 ../ccs/Debug/driverlib.lib(i2c.obj)
 .debug_line    0x0000000000003bca       0x91 ../ccs/Debug/driverlib.lib(i2c.obj)
 .debug_line    0x0000000000003c5b       0x91 ../ccs/Debug/driverlib.lib(i2c.obj)
 .debug_line    0x0000000000003cec       0x91 ../ccs/Debug/driverlib.lib(i2c.obj)
 .debug_line    0x0000000000003d7d       0x92 ../ccs/Debug/driverlib.lib(i2c.obj)
 .debug_line    0x0000000000003e0f       0x91 ../ccs/Debug/driverlib.lib(i2c.obj)
 .debug_line    0x0000000000003ea0       0xa5 ../ccs/Debug/driverlib.lib(i2c.obj)
 .debug_line    0x0000000000003f45       0x9b ../ccs/Debug/driverlib.lib(i2c.obj)
 .debug_line    0x0000000000003fe0       0x94 ../ccs/Debug/driverlib.lib(i2c.obj)
 .debug_line    0x0000000000004074       0x91 ../ccs/Debug/driverlib.lib(i2c.obj)
 .debug_line    0x0000000000004105       0x91 ../ccs/Debug/driverlib.lib(i2c.obj)
 .debug_line    0x0000000000004196       0x91 ../ccs/Debug/driverlib.lib(i2c.obj)
 .debug_line    0x0000000000004227       0x91 ../ccs/Debug/driverlib.lib(i2c.obj)
 .debug_line    0x00000000000042b8       0x91 ../ccs/Debug/driverlib.lib(i2c.obj)
 .debug_line    0x0000000000004349       0x91 ../ccs/Debug/driverlib.lib(i2c.obj)
 .debug_line    0x00000000000043da       0x91 ../ccs/Debug/driverlib.lib(i2c.obj)
 .debug_line    0x000000000000446b       0x91 ../ccs/Debug/driverlib.lib(i2c.obj)
 .debug_line    0x00000000000044fc       0x91 ../ccs/Debug/driverlib.lib(i2c.obj)
 .debug_line    0x000000000000458d       0xa1 ../ccs/Debug/driverlib.lib(i2c.obj)
 .debug_line    0x000000000000462e       0x93 ../ccs/Debug/driverlib.lib(i2c.obj)
 .debug_line    0x00000000000046c1       0x98 ../ccs/Debug/driverlib.lib(i2c.obj)
 .debug_line    0x0000000000004759       0x91 ../ccs/Debug/driverlib.lib(i2c.obj)
 .debug_line    0x00000000000047ea       0x96 ../ccs/Debug/driverlib.lib(i2c.obj)
 .debug_line    0x0000000000004880       0x92 ../ccs/Debug/driverlib.lib(i2c.obj)
 .debug_line    0x0000000000004912       0x97 ../ccs/Debug/driverlib.lib(i2c.obj)
 .debug_line    0x00000000000049a9       0x92 ../ccs/Debug/driverlib.lib(i2c.obj)
 .debug_line    0x0000000000004a3b       0x7c ../ccs/Debug/driverlib.lib(i2c.obj)
 .debug_line    0x0000000000004ab7       0x7c ../ccs/Debug/driverlib.lib(interrupt.obj)
 .debug_line    0x0000000000004b33       0x82 ../ccs/Debug/driverlib.lib(interrupt.obj)
 .debug_line    0x0000000000004bb5       0x82 ../ccs/Debug/driverlib.lib(interrupt.obj)
 .debug_line    0x0000000000004c37       0x82 ../ccs/Debug/driverlib.lib(interrupt.obj)
 .debug_line    0x0000000000004cb9       0x97 ../ccs/Debug/driverlib.lib(interrupt.obj)
 .debug_line    0x0000000000004d50       0x97 ../ccs/Debug/driverlib.lib(interrupt.obj)
 .debug_line    0x0000000000004de7       0x97 ../ccs/Debug/driverlib.lib(interrupt.obj)
 .debug_line    0x0000000000004e7e       0xaf ../ccs/Debug/driverlib.lib(interrupt.obj)
 .debug_line    0x0000000000004f2d       0x99 ../ccs/Debug/driverlib.lib(interrupt.obj)
 .debug_line    0x0000000000004fc6       0x97 ../ccs/Debug/driverlib.lib(interrupt.obj)
 .debug_line    0x000000000000505d       0x97 ../ccs/Debug/driverlib.lib(interrupt.obj)
 .debug_line    0x00000000000050f4       0x97 ../ccs/Debug/driverlib.lib(interrupt.obj)
 .debug_line    0x000000000000518b       0xa6 ../ccs/Debug/driverlib.lib(interrupt.obj)
 .debug_line    0x0000000000005231       0x97 ../ccs/Debug/driverlib.lib(interrupt.obj)
 .debug_line    0x00000000000052c8       0xb9 ../ccs/Debug/driverlib.lib(interrupt.obj)
 .debug_line    0x0000000000005381       0xb0 ../ccs/Debug/driverlib.lib(interrupt.obj)
 .debug_line    0x0000000000005431       0x97 ../ccs/Debug/driverlib.lib(interrupt.obj)
 .debug_line    0x00000000000054c8       0x97 ../ccs/Debug/driverlib.lib(interrupt.obj)
 .debug_line    0x000000000000555f       0xb8 ../ccs/Debug/driverlib.lib(interrupt.obj)
 .debug_line    0x0000000000005617       0xc2 ../ccs/Debug/driverlib.lib(interrupt.obj)
 .debug_line    0x00000000000056d9       0xc2 ../ccs/Debug/driverlib.lib(interrupt.obj)
 .debug_line    0x000000000000579b       0x82 ../ccs/Debug/driverlib.lib(interrupt.obj)
 .debug_line    0x000000000000581d      0x13d ../ccs/Debug/driverlib.lib(sysctl.obj)
 .debug_line    0x000000000000595a       0x7f ../ccs/Debug/driverlib.lib(sysctl.obj)
 .debug_line    0x00000000000059d9       0x7f ../ccs/Debug/driverlib.lib(sysctl.obj)
 .debug_line    0x0000000000005a58       0x7f ../ccs/Debug/driverlib.lib(sysctl.obj)
 .debug_line    0x0000000000005ad7       0x7f ../ccs/Debug/driverlib.lib(sysctl.obj)
 .debug_line    0x0000000000005b56       0x94 ../ccs/Debug/driverlib.lib(sysctl.obj)
 .debug_line    0x0000000000005bea       0x94 ../ccs/Debug/driverlib.lib(sysctl.obj)
 .debug_line    0x0000000000005c7e       0x94 ../ccs/Debug/driverlib.lib(sysctl.obj)
 .debug_line    0x0000000000005d12       0xa8 ../ccs/Debug/driverlib.lib(sysctl.obj)
 .debug_line    0x0000000000005dba       0x94 ../ccs/Debug/driverlib.lib(sysctl.obj)
 .debug_line    0x0000000000005e4e       0x94 ../ccs/Debug/driverlib.lib(sysctl.obj)
 .debug_line    0x0000000000005ee2       0x94 ../ccs/Debug/driverlib.lib(sysctl.obj)
 .debug_line    0x0000000000005f76       0x94 ../ccs/Debug/driverlib.lib(sysctl.obj)
 .debug_line    0x000000000000600a       0x94 ../ccs/Debug/driverlib.lib(sysctl.obj)
 .debug_line    0x000000000000609e       0x94 ../ccs/Debug/driverlib.lib(sysctl.obj)
 .debug_line    0x0000000000006132       0x94 ../ccs/Debug/driverlib.lib(sysctl.obj)
 .debug_line    0x00000000000061c6       0x94 ../ccs/Debug/driverlib.lib(sysctl.obj)
 .debug_line    0x000000000000625a       0x94 ../ccs/Debug/driverlib.lib(sysctl.obj)
 .debug_line    0x00000000000062ee       0x97 ../ccs/Debug/driverlib.lib(sysctl.obj)
 .debug_line    0x0000000000006385       0x94 ../ccs/Debug/driverlib.lib(sysctl.obj)
 .debug_line    0x0000000000006419       0x94 ../ccs/Debug/driverlib.lib(sysctl.obj)
 .debug_line    0x00000000000064ad       0xa7 ../ccs/Debug/driverlib.lib(sysctl.obj)
 .debug_line    0x0000000000006554       0x94 ../ccs/Debug/driverlib.lib(sysctl.obj)
 .debug_line    0x00000000000065e8       0x94 ../ccs/Debug/driverlib.lib(sysctl.obj)
 .debug_line    0x000000000000667c       0x94 ../ccs/Debug/driverlib.lib(sysctl.obj)
 .debug_line    0x0000000000006710       0x94 ../ccs/Debug/driverlib.lib(sysctl.obj)
 .debug_line    0x00000000000067a4       0x94 ../ccs/Debug/driverlib.lib(sysctl.obj)
 .debug_line    0x0000000000006838       0x94 ../ccs/Debug/driverlib.lib(sysctl.obj)
 .debug_line    0x00000000000068cc       0x94 ../ccs/Debug/driverlib.lib(sysctl.obj)
 .debug_line    0x0000000000006960       0x94 ../ccs/Debug/driverlib.lib(sysctl.obj)
 .debug_line    0x00000000000069f4       0xaa ../ccs/Debug/driverlib.lib(sysctl.obj)
 .debug_line    0x0000000000006a9e       0x94 ../ccs/Debug/driverlib.lib(sysctl.obj)
 .debug_line    0x0000000000006b32       0x97 ../ccs/Debug/driverlib.lib(sysctl.obj)
 .debug_line    0x0000000000006bc9       0xac ../ccs/Debug/driverlib.lib(sysctl.obj)
 .debug_line    0x0000000000006c75       0x94 ../ccs/Debug/driverlib.lib(sysctl.obj)
 .debug_line    0x0000000000006d09       0x94 ../ccs/Debug/driverlib.lib(sysctl.obj)
 .debug_line    0x0000000000006d9d       0x94 ../ccs/Debug/driverlib.lib(sysctl.obj)
 .debug_line    0x0000000000006e31       0x94 ../ccs/Debug/driverlib.lib(sysctl.obj)
 .debug_line    0x0000000000006ec5       0x94 ../ccs/Debug/driverlib.lib(sysctl.obj)
 .debug_line    0x0000000000006f59       0x94 ../ccs/Debug/driverlib.lib(sysctl.obj)
 .debug_line    0x0000000000006fed       0x94 ../ccs/Debug/driverlib.lib(sysctl.obj)
 .debug_line    0x0000000000007081       0x95 ../ccs/Debug/driverlib.lib(sysctl.obj)
 .debug_line    0x0000000000007116       0x94 ../ccs/Debug/driverlib.lib(sysctl.obj)
 .debug_line    0x00000000000071aa       0x95 ../ccs/Debug/driverlib.lib(sysctl.obj)
 .debug_line    0x000000000000723f       0x94 ../ccs/Debug/driverlib.lib(sysctl.obj)
 .debug_line    0x00000000000072d3       0x94 ../ccs/Debug/driverlib.lib(sysctl.obj)
 .debug_line    0x0000000000007367       0x94 ../ccs/Debug/driverlib.lib(sysctl.obj)
 .debug_line    0x00000000000073fb       0x94 ../ccs/Debug/driverlib.lib(sysctl.obj)
 .debug_line    0x000000000000748f       0x94 ../ccs/Debug/driverlib.lib(sysctl.obj)
 .debug_line    0x0000000000007523       0x94 ../ccs/Debug/driverlib.lib(sysctl.obj)
 .debug_line    0x00000000000075b7       0x97 ../ccs/Debug/driverlib.lib(sysctl.obj)
 .debug_line    0x000000000000764e       0x94 ../ccs/Debug/driverlib.lib(sysctl.obj)
 .debug_line    0x00000000000076e2       0x94 ../ccs/Debug/driverlib.lib(sysctl.obj)
 .debug_line    0x0000000000007776       0xbd ../ccs/Debug/driverlib.lib(sysctl.obj)
 .debug_line    0x0000000000007833       0x96 ../ccs/Debug/driverlib.lib(sysctl.obj)
 .debug_line    0x00000000000078c9       0xee ../ccs/Debug/driverlib.lib(sysctl.obj)
 .debug_line    0x00000000000079b7       0x94 ../ccs/Debug/driverlib.lib(sysctl.obj)
 .debug_line    0x0000000000007a4b      0x11a ../ccs/Debug/driverlib.lib(sysctl.obj)
 .debug_line    0x0000000000007b65       0x9e ../ccs/Debug/driverlib.lib(sysctl.obj)
 .debug_line    0x0000000000007c03       0xb0 ../ccs/Debug/driverlib.lib(sysctl.obj)
 .debug_line    0x0000000000007cb3      0x196 ../ccs/Debug/driverlib.lib(sysctl.obj)
 .debug_line    0x0000000000007e49       0x94 ../ccs/Debug/driverlib.lib(sysctl.obj)
 .debug_line    0x0000000000007edd       0x7f ../ccs/Debug/driverlib.lib(sysctl.obj)
 .debug_line    0x0000000000007f5c       0x20 ../ccs/Debug/driverlib.lib(cpu.obj)
 .debug_line    0x0000000000007f7c       0x8e ../ccs/Debug/driverlib.lib(cpu.obj)
 .debug_line    0x000000000000800a       0x91 ../ccs/Debug/driverlib.lib(cpu.obj)
 .debug_line    0x000000000000809b       0x91 ../ccs/Debug/driverlib.lib(cpu.obj)
 .debug_line    0x000000000000812c       0x91 ../ccs/Debug/driverlib.lib(cpu.obj)
 .debug_line    0x00000000000081bd       0x8e ../ccs/Debug/driverlib.lib(cpu.obj)
 .debug_line    0x000000000000824b       0x91 ../ccs/Debug/driverlib.lib(cpu.obj)
 .debug_line    0x00000000000082dc       0x20 ../ccs/Debug/driverlib.lib(cpu.obj)
 .debug_line    0x00000000000082fc       0x7c ../ccs/Debug/driverlib.lib(cpu.obj)

.debug_str      0x0000000000000000     0x15ed
 .debug_str     0x0000000000000000      0x8cf ./main.o
                                        0x9ba (size before relaxing)
 .debug_str     0x00000000000008cf       0xbb ./tm4c123gh6pm_startup_ccs_gcc.o
                                        0x27c (size before relaxing)
 .debug_str     0x000000000000098a       0xf5 ../ccs/Debug/driverlib.lib(gpio.obj)
 .debug_str     0x0000000000000a7f      0x241 ../ccs/Debug/driverlib.lib(gpio.obj)
 .debug_str     0x0000000000000cc0      0x154 ../ccs/Debug/driverlib.lib(gpio.obj)
 .debug_str     0x0000000000000e14      0x123 ../ccs/Debug/driverlib.lib(gpio.obj)
 .debug_str     0x0000000000000f37      0x114 ../ccs/Debug/driverlib.lib(gpio.obj)
 .debug_str     0x000000000000104b      0x122 ../ccs/Debug/driverlib.lib(i2c.obj)
 .debug_str     0x000000000000116d      0x128 ../ccs/Debug/driverlib.lib(interrupt.obj)
 .debug_str     0x0000000000001295      0x141 ../ccs/Debug/driverlib.lib(sysctl.obj)
 .debug_str     0x00000000000013d6       0xf5 ../ccs/Debug/driverlib.lib(cpu.obj)
 .debug_str     0x00000000000014cb      0x122 ../ccs/Debug/driverlib.lib(cpu.obj)

.debug_frame    0x0000000000000000     0x7e30
 .debug_frame   0x0000000000000000      0x3d8 ./main.o
 .debug_frame   0x00000000000003d8       0x7c ./tm4c123gh6pm_startup_ccs_gcc.o
 .debug_frame   0x0000000000000454       0x7f ../ccs/Debug/driverlib.lib(gpio.obj)
 .debug_frame   0x00000000000004d3       0x7f ../ccs/Debug/driverlib.lib(gpio.obj)
 .debug_frame   0x0000000000000552       0x7f ../ccs/Debug/driverlib.lib(gpio.obj)
 .debug_frame   0x00000000000005d1       0x8f ../ccs/Debug/driverlib.lib(gpio.obj)
 .debug_frame   0x0000000000000660       0x86 ../ccs/Debug/driverlib.lib(gpio.obj)
 .debug_frame   0x00000000000006e6       0x86 ../ccs/Debug/driverlib.lib(gpio.obj)
 .debug_frame   0x000000000000076c       0x86 ../ccs/Debug/driverlib.lib(gpio.obj)
 .debug_frame   0x00000000000007f2       0x86 ../ccs/Debug/driverlib.lib(gpio.obj)
 .debug_frame   0x0000000000000878       0x86 ../ccs/Debug/driverlib.lib(gpio.obj)
 .debug_frame   0x00000000000008fe       0x86 ../ccs/Debug/driverlib.lib(gpio.obj)
 .debug_frame   0x0000000000000984       0x86 ../ccs/Debug/driverlib.lib(gpio.obj)
 .debug_frame   0x0000000000000a0a       0x86 ../ccs/Debug/driverlib.lib(gpio.obj)
 .debug_frame   0x0000000000000a90       0x86 ../ccs/Debug/driverlib.lib(gpio.obj)
 .debug_frame   0x0000000000000b16       0x86 ../ccs/Debug/driverlib.lib(gpio.obj)
 .debug_frame   0x0000000000000b9c       0x86 ../ccs/Debug/driverlib.lib(gpio.obj)
 .debug_frame   0x0000000000000c22       0x86 ../ccs/Debug/driverlib.lib(gpio.obj)
 .debug_frame   0x0000000000000ca8       0x86 ../ccs/Debug/driverlib.lib(gpio.obj)
 .debug_frame   0x0000000000000d2e       0x86 ../ccs/Debug/driverlib.lib(gpio.obj)
 .debug_frame   0x0000000000000db4       0x86 ../ccs/Debug/driverlib.lib(gpio.obj)
 .debug_frame   0x0000000000000e3a       0x8a ../ccs/Debug/driverlib.lib(gpio.obj)
 .debug_frame   0x0000000000000ec4       0x8a ../ccs/Debug/driverlib.lib(gpio.obj)
 .debug_frame   0x0000000000000f4e       0x86 ../ccs/Debug/driverlib.lib(gpio.obj)
 .debug_frame   0x0000000000000fd4       0x86 ../ccs/Debug/driverlib.lib(gpio.obj)
 .debug_frame   0x000000000000105a       0x86 ../ccs/Debug/driverlib.lib(gpio.obj)
 .debug_frame   0x00000000000010e0       0x86 ../ccs/Debug/driverlib.lib(gpio.obj)
 .debug_frame   0x0000000000001166       0x86 ../ccs/Debug/driverlib.lib(gpio.obj)
 .debug_frame   0x00000000000011ec       0x86 ../ccs/Debug/driverlib.lib(gpio.obj)
 .debug_frame   0x0000000000001272       0x86 ../ccs/Debug/driverlib.lib(gpio.obj)
 .debug_frame   0x00000000000012f8       0x86 ../ccs/Debug/driverlib.lib(gpio.obj)
 .debug_frame   0x000000000000137e       0x86 ../ccs/Debug/driverlib.lib(gpio.obj)
 .debug_frame   0x0000000000001404       0x7f ../ccs/Debug/driverlib.lib(gpio.obj)
 .debug_frame   0x0000000000001483       0x86 ../ccs/Debug/driverlib.lib(gpio.obj)
 .debug_frame   0x0000000000001509       0x8f ../ccs/Debug/driverlib.lib(gpio.obj)
 .debug_frame   0x0000000000001598       0x7f ../ccs/Debug/driverlib.lib(gpio.obj)
 .debug_frame   0x0000000000001617       0x86 ../ccs/Debug/driverlib.lib(gpio.obj)
 .debug_frame   0x000000000000169d       0x86 ../ccs/Debug/driverlib.lib(gpio.obj)
 .debug_frame   0x0000000000001723       0x7f ../ccs/Debug/driverlib.lib(gpio.obj)
 .debug_frame   0x00000000000017a2       0x8e ../ccs/Debug/driverlib.lib(gpio.obj)
 .debug_frame   0x0000000000001830       0x7f ../ccs/Debug/driverlib.lib(gpio.obj)
 .debug_frame   0x00000000000018af       0x8a ../ccs/Debug/driverlib.lib(gpio.obj)
 .debug_frame   0x0000000000001939       0x8a ../ccs/Debug/driverlib.lib(gpio.obj)
 .debug_frame   0x00000000000019c3       0x7f ../ccs/Debug/driverlib.lib(gpio.obj)
 .debug_frame   0x0000000000001a42       0x7f ../ccs/Debug/driverlib.lib(gpio.obj)
 .debug_frame   0x0000000000001ac1       0x7f ../ccs/Debug/driverlib.lib(gpio.obj)
 .debug_frame   0x0000000000001b40       0x8a ../ccs/Debug/driverlib.lib(gpio.obj)
 .debug_frame   0x0000000000001bca       0x7f ../ccs/Debug/driverlib.lib(gpio.obj)
 .debug_frame   0x0000000000001c49       0x7f ../ccs/Debug/driverlib.lib(gpio.obj)
 .debug_frame   0x0000000000001cc8       0x7f ../ccs/Debug/driverlib.lib(gpio.obj)
 .debug_frame   0x0000000000001d47       0x7f ../ccs/Debug/driverlib.lib(gpio.obj)
 .debug_frame   0x0000000000001dc6       0x7f ../ccs/Debug/driverlib.lib(i2c.obj)
 .debug_frame   0x0000000000001e45       0x7f ../ccs/Debug/driverlib.lib(i2c.obj)
 .debug_frame   0x0000000000001ec4       0x7f ../ccs/Debug/driverlib.lib(i2c.obj)
 .debug_frame   0x0000000000001f43       0x7f ../ccs/Debug/driverlib.lib(i2c.obj)
 .debug_frame   0x0000000000001fc2       0x7f ../ccs/Debug/driverlib.lib(i2c.obj)
 .debug_frame   0x0000000000002041       0x7f ../ccs/Debug/driverlib.lib(i2c.obj)
 .debug_frame   0x00000000000020c0       0x7f ../ccs/Debug/driverlib.lib(i2c.obj)
 .debug_frame   0x000000000000213f       0x7f ../ccs/Debug/driverlib.lib(i2c.obj)
 .debug_frame   0x00000000000021be       0x7f ../ccs/Debug/driverlib.lib(i2c.obj)
 .debug_frame   0x000000000000223d       0x7f ../ccs/Debug/driverlib.lib(i2c.obj)
 .debug_frame   0x00000000000022bc       0x7f ../ccs/Debug/driverlib.lib(i2c.obj)
 .debug_frame   0x000000000000233b       0x7f ../ccs/Debug/driverlib.lib(i2c.obj)
 .debug_frame   0x00000000000023ba       0x86 ../ccs/Debug/driverlib.lib(i2c.obj)
 .debug_frame   0x0000000000002440       0x7f ../ccs/Debug/driverlib.lib(i2c.obj)
 .debug_frame   0x00000000000024bf       0x7f ../ccs/Debug/driverlib.lib(i2c.obj)
 .debug_frame   0x000000000000253e       0x7f ../ccs/Debug/driverlib.lib(i2c.obj)
 .debug_frame   0x00000000000025bd       0x7f ../ccs/Debug/driverlib.lib(i2c.obj)
 .debug_frame   0x000000000000263c       0x7f ../ccs/Debug/driverlib.lib(i2c.obj)
 .debug_frame   0x00000000000026bb       0x83 ../ccs/Debug/driverlib.lib(i2c.obj)
 .debug_frame   0x000000000000273e       0x7f ../ccs/Debug/driverlib.lib(i2c.obj)
 .debug_frame   0x00000000000027bd       0x7f ../ccs/Debug/driverlib.lib(i2c.obj)
 .debug_frame   0x000000000000283c       0x7f ../ccs/Debug/driverlib.lib(i2c.obj)
 .debug_frame   0x00000000000028bb       0x7f ../ccs/Debug/driverlib.lib(i2c.obj)
 .debug_frame   0x000000000000293a       0x7f ../ccs/Debug/driverlib.lib(i2c.obj)
 .debug_frame   0x00000000000029b9       0x7f ../ccs/Debug/driverlib.lib(i2c.obj)
 .debug_frame   0x0000000000002a38       0x7f ../ccs/Debug/driverlib.lib(i2c.obj)
 .debug_frame   0x0000000000002ab7       0x7f ../ccs/Debug/driverlib.lib(i2c.obj)
 .debug_frame   0x0000000000002b36       0x7f ../ccs/Debug/driverlib.lib(i2c.obj)
 .debug_frame   0x0000000000002bb5       0x7f ../ccs/Debug/driverlib.lib(i2c.obj)
 .debug_frame   0x0000000000002c34       0x7f ../ccs/Debug/driverlib.lib(i2c.obj)
 .debug_frame   0x0000000000002cb3       0x7f ../ccs/Debug/driverlib.lib(i2c.obj)
 .debug_frame   0x0000000000002d32       0x7f ../ccs/Debug/driverlib.lib(i2c.obj)
 .debug_frame   0x0000000000002db1       0x7f ../ccs/Debug/driverlib.lib(i2c.obj)
 .debug_frame   0x0000000000002e30       0x7f ../ccs/Debug/driverlib.lib(i2c.obj)
 .debug_frame   0x0000000000002eaf       0x7f ../ccs/Debug/driverlib.lib(i2c.obj)
 .debug_frame   0x0000000000002f2e       0x8a ../ccs/Debug/driverlib.lib(i2c.obj)
 .debug_frame   0x0000000000002fb8       0x8a ../ccs/Debug/driverlib.lib(i2c.obj)
 .debug_frame   0x0000000000003042       0x83 ../ccs/Debug/driverlib.lib(i2c.obj)
 .debug_frame   0x00000000000030c5       0x7f ../ccs/Debug/driverlib.lib(i2c.obj)
 .debug_frame   0x0000000000003144       0x7f ../ccs/Debug/driverlib.lib(i2c.obj)
 .debug_frame   0x00000000000031c3       0x7f ../ccs/Debug/driverlib.lib(i2c.obj)
 .debug_frame   0x0000000000003242       0x7f ../ccs/Debug/driverlib.lib(i2c.obj)
 .debug_frame   0x00000000000032c1       0x7f ../ccs/Debug/driverlib.lib(i2c.obj)
 .debug_frame   0x0000000000003340       0x7f ../ccs/Debug/driverlib.lib(i2c.obj)
 .debug_frame   0x00000000000033bf       0x7f ../ccs/Debug/driverlib.lib(i2c.obj)
 .debug_frame   0x000000000000343e       0x7f ../ccs/Debug/driverlib.lib(i2c.obj)
 .debug_frame   0x00000000000034bd       0x7f ../ccs/Debug/driverlib.lib(i2c.obj)
 .debug_frame   0x000000000000353c       0x7f ../ccs/Debug/driverlib.lib(i2c.obj)
 .debug_frame   0x00000000000035bb       0x86 ../ccs/Debug/driverlib.lib(i2c.obj)
 .debug_frame   0x0000000000003641       0x8a ../ccs/Debug/driverlib.lib(i2c.obj)
 .debug_frame   0x00000000000036cb       0x7f ../ccs/Debug/driverlib.lib(i2c.obj)
 .debug_frame   0x000000000000374a       0x7f ../ccs/Debug/driverlib.lib(i2c.obj)
 .debug_frame   0x00000000000037c9       0x7f ../ccs/Debug/driverlib.lib(i2c.obj)
 .debug_frame   0x0000000000003848       0x7f ../ccs/Debug/driverlib.lib(i2c.obj)
 .debug_frame   0x00000000000038c7       0x7f ../ccs/Debug/driverlib.lib(i2c.obj)
 .debug_frame   0x0000000000003946       0x7f ../ccs/Debug/driverlib.lib(interrupt.obj)
 .debug_frame   0x00000000000039c5       0x7f ../ccs/Debug/driverlib.lib(interrupt.obj)
 .debug_frame   0x0000000000003a44       0x7f ../ccs/Debug/driverlib.lib(interrupt.obj)
 .debug_frame   0x0000000000003ac3       0x8e ../ccs/Debug/driverlib.lib(interrupt.obj)
 .debug_frame   0x0000000000003b51       0x86 ../ccs/Debug/driverlib.lib(interrupt.obj)
 .debug_frame   0x0000000000003bd7       0x7f ../ccs/Debug/driverlib.lib(interrupt.obj)
 .debug_frame   0x0000000000003c56       0x7f ../ccs/Debug/driverlib.lib(interrupt.obj)
 .debug_frame   0x0000000000003cd5       0x7f ../ccs/Debug/driverlib.lib(interrupt.obj)
 .debug_frame   0x0000000000003d54       0x86 ../ccs/Debug/driverlib.lib(interrupt.obj)
 .debug_frame   0x0000000000003dda       0x7f ../ccs/Debug/driverlib.lib(interrupt.obj)
 .debug_frame   0x0000000000003e59       0x7f ../ccs/Debug/driverlib.lib(interrupt.obj)
 .debug_frame   0x0000000000003ed8       0x7f ../ccs/Debug/driverlib.lib(interrupt.obj)
 .debug_frame   0x0000000000003f57       0x86 ../ccs/Debug/driverlib.lib(interrupt.obj)
 .debug_frame   0x0000000000003fdd       0x86 ../ccs/Debug/driverlib.lib(interrupt.obj)
 .debug_frame   0x0000000000004063       0x89 ../ccs/Debug/driverlib.lib(interrupt.obj)
 .debug_frame   0x00000000000040ec       0x7f ../ccs/Debug/driverlib.lib(interrupt.obj)
 .debug_frame   0x000000000000416b       0x7f ../ccs/Debug/driverlib.lib(interrupt.obj)
 .debug_frame   0x00000000000041ea       0x7f ../ccs/Debug/driverlib.lib(sysctl.obj)
 .debug_frame   0x0000000000004269       0x7f ../ccs/Debug/driverlib.lib(sysctl.obj)
 .debug_frame   0x00000000000042e8       0x7f ../ccs/Debug/driverlib.lib(sysctl.obj)
 .debug_frame   0x0000000000004367       0x8a ../ccs/Debug/driverlib.lib(sysctl.obj)
 .debug_frame   0x00000000000043f1       0x7f ../ccs/Debug/driverlib.lib(sysctl.obj)
 .debug_frame   0x0000000000004470       0x7f ../ccs/Debug/driverlib.lib(sysctl.obj)
 .debug_frame   0x00000000000044ef       0x7f ../ccs/Debug/driverlib.lib(sysctl.obj)
 .debug_frame   0x000000000000456e       0x7f ../ccs/Debug/driverlib.lib(sysctl.obj)
 .debug_frame   0x00000000000045ed       0x7f ../ccs/Debug/driverlib.lib(sysctl.obj)
 .debug_frame   0x000000000000466c       0x7f ../ccs/Debug/driverlib.lib(sysctl.obj)
 .debug_frame   0x00000000000046eb       0x7f ../ccs/Debug/driverlib.lib(sysctl.obj)
 .debug_frame   0x000000000000476a       0x7f ../ccs/Debug/driverlib.lib(sysctl.obj)
 .debug_frame   0x00000000000047e9       0x7f ../ccs/Debug/driverlib.lib(sysctl.obj)
 .debug_frame   0x0000000000004868       0x7f ../ccs/Debug/driverlib.lib(sysctl.obj)
 .debug_frame   0x00000000000048e7       0x7f ../ccs/Debug/driverlib.lib(sysctl.obj)
 .debug_frame   0x0000000000004966       0x7f ../ccs/Debug/driverlib.lib(sysctl.obj)
 .debug_frame   0x00000000000049e5       0x85 ../ccs/Debug/driverlib.lib(sysctl.obj)
 .debug_frame   0x0000000000004a6a       0x7f ../ccs/Debug/driverlib.lib(sysctl.obj)
 .debug_frame   0x0000000000004ae9       0x7f ../ccs/Debug/driverlib.lib(sysctl.obj)
 .debug_frame   0x0000000000004b68       0x7f ../ccs/Debug/driverlib.lib(sysctl.obj)
 .debug_frame   0x0000000000004be7       0x7f ../ccs/Debug/driverlib.lib(sysctl.obj)
 .debug_frame   0x0000000000004c66       0x7f ../ccs/Debug/driverlib.lib(sysctl.obj)
 .debug_frame   0x0000000000004ce5       0x7f ../ccs/Debug/driverlib.lib(sysctl.obj)
 .debug_frame   0x0000000000004d64       0x7f ../ccs/Debug/driverlib.lib(sysctl.obj)
 .debug_frame   0x0000000000004de3       0x7f ../ccs/Debug/driverlib.lib(sysctl.obj)
 .debug_frame   0x0000000000004e62       0x8a ../ccs/Debug/driverlib.lib(sysctl.obj)
 .debug_frame   0x0000000000004eec       0x7f ../ccs/Debug/driverlib.lib(sysctl.obj)
 .debug_frame   0x0000000000004f6b       0x7f ../ccs/Debug/driverlib.lib(sysctl.obj)
 .debug_frame   0x0000000000004fea       0x7f ../ccs/Debug/driverlib.lib(sysctl.obj)
 .debug_frame   0x0000000000005069       0x7f ../ccs/Debug/driverlib.lib(sysctl.obj)
 .debug_frame   0x00000000000050e8       0x7f ../ccs/Debug/driverlib.lib(sysctl.obj)
 .debug_frame   0x0000000000005167       0x7f ../ccs/Debug/driverlib.lib(sysctl.obj)
 .debug_frame   0x00000000000051e6       0x7f ../ccs/Debug/driverlib.lib(sysctl.obj)
 .debug_frame   0x0000000000005265       0x7f ../ccs/Debug/driverlib.lib(sysctl.obj)
 .debug_frame   0x00000000000052e4       0x7f ../ccs/Debug/driverlib.lib(sysctl.obj)
 .debug_frame   0x0000000000005363       0x7f ../ccs/Debug/driverlib.lib(sysctl.obj)
 .debug_frame   0x00000000000053e2       0x86 ../ccs/Debug/driverlib.lib(sysctl.obj)
 .debug_frame   0x0000000000005468       0x7f ../ccs/Debug/driverlib.lib(sysctl.obj)
 .debug_frame   0x00000000000054e7       0x86 ../ccs/Debug/driverlib.lib(sysctl.obj)
 .debug_frame   0x000000000000556d       0x7f ../ccs/Debug/driverlib.lib(sysctl.obj)
 .debug_frame   0x00000000000055ec       0x7f ../ccs/Debug/driverlib.lib(sysctl.obj)
 .debug_frame   0x000000000000566b       0x7f ../ccs/Debug/driverlib.lib(sysctl.obj)
 .debug_frame   0x00000000000056ea       0x7f ../ccs/Debug/driverlib.lib(sysctl.obj)
 .debug_frame   0x0000000000005769       0x7f ../ccs/Debug/driverlib.lib(sysctl.obj)
 .debug_frame   0x00000000000057e8       0x7f ../ccs/Debug/driverlib.lib(sysctl.obj)
 .debug_frame   0x0000000000005867       0x83 ../ccs/Debug/driverlib.lib(sysctl.obj)
 .debug_frame   0x00000000000058ea       0x7f ../ccs/Debug/driverlib.lib(sysctl.obj)
 .debug_frame   0x0000000000005969       0x7f ../ccs/Debug/driverlib.lib(sysctl.obj)
 .debug_frame   0x00000000000059e8       0x8a ../ccs/Debug/driverlib.lib(sysctl.obj)
 .debug_frame   0x0000000000005a72       0x86 ../ccs/Debug/driverlib.lib(sysctl.obj)
 .debug_frame   0x0000000000005af8       0x93 ../ccs/Debug/driverlib.lib(sysctl.obj)
 .debug_frame   0x0000000000005b8b       0x7f ../ccs/Debug/driverlib.lib(sysctl.obj)
 .debug_frame   0x0000000000005c0a       0x8e ../ccs/Debug/driverlib.lib(sysctl.obj)
 .debug_frame   0x0000000000005c98       0x7f ../ccs/Debug/driverlib.lib(sysctl.obj)
 .debug_frame   0x0000000000005d17       0x8a ../ccs/Debug/driverlib.lib(sysctl.obj)
 .debug_frame   0x0000000000005da1       0x98 ../ccs/Debug/driverlib.lib(sysctl.obj)
 .debug_frame   0x0000000000005e39       0x7f ../ccs/Debug/driverlib.lib(sysctl.obj)
 .debug_frame   0x0000000000005eb8       0x7f ../ccs/Debug/driverlib.lib(cpu.obj)
 .debug_frame   0x0000000000005f37       0x7f ../ccs/Debug/driverlib.lib(cpu.obj)
 .debug_frame   0x0000000000005fb6       0x7f ../ccs/Debug/driverlib.lib(cpu.obj)
 .debug_frame   0x0000000000006035       0x7f ../ccs/Debug/driverlib.lib(cpu.obj)
 .debug_frame   0x00000000000060b4       0x7f ../ccs/Debug/driverlib.lib(cpu.obj)
 .debug_frame   0x0000000000006133       0x7f ../ccs/Debug/driverlib.lib(cpu.obj)
 *fill*         0x00000000000061b2        0x2 
 .debug_frame   0x00000000000061b4       0x20 /home/tech/ti/ccsv7/tools/compiler/gcc-arm-none-eabi-6-2017-q1-update/bin/../lib/gcc/arm-none-eabi/6.3.1/../../../../arm-none-eabi/lib/thumb/v7e-m/fpv4-sp/hard/libc.a(lib_a-atof.o)
 .debug_frame   0x00000000000061d4       0x30 /home/tech/ti/ccsv7/tools/compiler/gcc-arm-none-eabi-6-2017-q1-update/bin/../lib/gcc/arm-none-eabi/6.3.1/../../../../arm-none-eabi/lib/thumb/v7e-m/fpv4-sp/hard/libc.a(lib_a-atol.o)
 .debug_frame   0x0000000000006204       0x28 /home/tech/ti/ccsv7/tools/compiler/gcc-arm-none-eabi-6-2017-q1-update/bin/../lib/gcc/arm-none-eabi/6.3.1/../../../../arm-none-eabi/lib/thumb/v7e-m/fpv4-sp/hard/libc.a(lib_a-exit.o)
 .debug_frame   0x000000000000622c       0x2c /home/tech/ti/ccsv7/tools/compiler/gcc-arm-none-eabi-6-2017-q1-update/bin/../lib/gcc/arm-none-eabi/6.3.1/../../../../arm-none-eabi/lib/thumb/v7e-m/fpv4-sp/hard/libc.a(lib_a-init.o)
 .debug_frame   0x0000000000006258       0x34 /home/tech/ti/ccsv7/tools/compiler/gcc-arm-none-eabi-6-2017-q1-update/bin/../lib/gcc/arm-none-eabi/6.3.1/../../../../arm-none-eabi/lib/thumb/v7e-m/fpv4-sp/hard/libc.a(lib_a-memset.o)
 .debug_frame   0x000000000000628c       0x74 /home/tech/ti/ccsv7/tools/compiler/gcc-arm-none-eabi-6-2017-q1-update/bin/../lib/gcc/arm-none-eabi/6.3.1/../../../../arm-none-eabi/lib/thumb/v7e-m/fpv4-sp/hard/libc.a(lib_a-printf.o)
 .debug_frame   0x0000000000006300       0x30 /home/tech/ti/ccsv7/tools/compiler/gcc-arm-none-eabi-6-2017-q1-update/bin/../lib/gcc/arm-none-eabi/6.3.1/../../../../arm-none-eabi/lib/thumb/v7e-m/fpv4-sp/hard/libc.a(lib_a-putchar.o)
 .debug_frame   0x0000000000006330       0x84 /home/tech/ti/ccsv7/tools/compiler/gcc-arm-none-eabi-6-2017-q1-update/bin/../lib/gcc/arm-none-eabi/6.3.1/../../../../arm-none-eabi/lib/thumb/v7e-m/fpv4-sp/hard/libc.a(lib_a-sprintf.o)
 .debug_frame   0x00000000000063b4      0x138 /home/tech/ti/ccsv7/tools/compiler/gcc-arm-none-eabi-6-2017-q1-update/bin/../lib/gcc/arm-none-eabi/6.3.1/../../../../arm-none-eabi/lib/thumb/v7e-m/fpv4-sp/hard/libc.a(lib_a-strtod.o)
 .debug_frame   0x00000000000064ec       0x98 /home/tech/ti/ccsv7/tools/compiler/gcc-arm-none-eabi-6-2017-q1-update/bin/../lib/gcc/arm-none-eabi/6.3.1/../../../../arm-none-eabi/lib/thumb/v7e-m/fpv4-sp/hard/libc.a(lib_a-strtol.o)
 .debug_frame   0x0000000000006584       0x40 /home/tech/ti/ccsv7/tools/compiler/gcc-arm-none-eabi-6-2017-q1-update/bin/../lib/gcc/arm-none-eabi/6.3.1/../../../../arm-none-eabi/lib/thumb/v7e-m/fpv4-sp/hard/libc.a(lib_a-svfprintf.o)
 .debug_frame   0x00000000000065c4       0x94 /home/tech/ti/ccsv7/tools/compiler/gcc-arm-none-eabi-6-2017-q1-update/bin/../lib/gcc/arm-none-eabi/6.3.1/../../../../arm-none-eabi/lib/thumb/v7e-m/fpv4-sp/hard/libc.a(lib_a-vfprintf.o)
 .debug_frame   0x0000000000006658       0x2c /home/tech/ti/ccsv7/tools/compiler/gcc-arm-none-eabi-6-2017-q1-update/bin/../lib/gcc/arm-none-eabi/6.3.1/../../../../arm-none-eabi/lib/thumb/v7e-m/fpv4-sp/hard/libc.a(lib_a-wsetup.o)
 .debug_frame   0x0000000000006684       0x5c /home/tech/ti/ccsv7/tools/compiler/gcc-arm-none-eabi-6-2017-q1-update/bin/../lib/gcc/arm-none-eabi/6.3.1/../../../../arm-none-eabi/lib/thumb/v7e-m/fpv4-sp/hard/libc.a(lib_a-__call_atexit.o)
 .debug_frame   0x00000000000066e0       0x20 /home/tech/ti/ccsv7/tools/compiler/gcc-arm-none-eabi-6-2017-q1-update/bin/../lib/gcc/arm-none-eabi/6.3.1/../../../../arm-none-eabi/lib/thumb/v7e-m/fpv4-sp/hard/libc.a(lib_a-atexit.o)
 .debug_frame   0x0000000000006700       0x88 /home/tech/ti/ccsv7/tools/compiler/gcc-arm-none-eabi-6-2017-q1-update/bin/../lib/gcc/arm-none-eabi/6.3.1/../../../../arm-none-eabi/lib/thumb/v7e-m/fpv4-sp/hard/libc.a(lib_a-dtoa.o)
 .debug_frame   0x0000000000006788       0x5c /home/tech/ti/ccsv7/tools/compiler/gcc-arm-none-eabi-6-2017-q1-update/bin/../lib/gcc/arm-none-eabi/6.3.1/../../../../arm-none-eabi/lib/thumb/v7e-m/fpv4-sp/hard/libc.a(lib_a-fflush.o)
 .debug_frame   0x00000000000067e4      0x148 /home/tech/ti/ccsv7/tools/compiler/gcc-arm-none-eabi-6-2017-q1-update/bin/../lib/gcc/arm-none-eabi/6.3.1/../../../../arm-none-eabi/lib/thumb/v7e-m/fpv4-sp/hard/libc.a(lib_a-findfp.o)
 .debug_frame   0x000000000000692c       0x34 /home/tech/ti/ccsv7/tools/compiler/gcc-arm-none-eabi-6-2017-q1-update/bin/../lib/gcc/arm-none-eabi/6.3.1/../../../../arm-none-eabi/lib/thumb/v7e-m/fpv4-sp/hard/libc.a(lib_a-fini.o)
 .debug_frame   0x0000000000006960       0x74 /home/tech/ti/ccsv7/tools/compiler/gcc-arm-none-eabi-6-2017-q1-update/bin/../lib/gcc/arm-none-eabi/6.3.1/../../../../arm-none-eabi/lib/thumb/v7e-m/fpv4-sp/hard/libc.a(lib_a-freer.o)
 .debug_frame   0x00000000000069d4       0x54 /home/tech/ti/ccsv7/tools/compiler/gcc-arm-none-eabi-6-2017-q1-update/bin/../lib/gcc/arm-none-eabi/6.3.1/../../../../arm-none-eabi/lib/thumb/v7e-m/fpv4-sp/hard/libc.a(lib_a-fwalk.o)
 .debug_frame   0x0000000000006a28       0x70 /home/tech/ti/ccsv7/tools/compiler/gcc-arm-none-eabi-6-2017-q1-update/bin/../lib/gcc/arm-none-eabi/6.3.1/../../../../arm-none-eabi/lib/thumb/v7e-m/fpv4-sp/hard/libc.a(lib_a-gdtoa-gethex.o)
 .debug_frame   0x0000000000006a98       0x70 /home/tech/ti/ccsv7/tools/compiler/gcc-arm-none-eabi-6-2017-q1-update/bin/../lib/gcc/arm-none-eabi/6.3.1/../../../../arm-none-eabi/lib/thumb/v7e-m/fpv4-sp/hard/libc.a(lib_a-gdtoa-hexnan.o)
 .debug_frame   0x0000000000006b08       0x6c /home/tech/ti/ccsv7/tools/compiler/gcc-arm-none-eabi-6-2017-q1-update/bin/../lib/gcc/arm-none-eabi/6.3.1/../../../../arm-none-eabi/lib/thumb/v7e-m/fpv4-sp/hard/libc.a(lib_a-locale.o)
 .debug_frame   0x0000000000006b74       0x40 /home/tech/ti/ccsv7/tools/compiler/gcc-arm-none-eabi-6-2017-q1-update/bin/../lib/gcc/arm-none-eabi/6.3.1/../../../../arm-none-eabi/lib/thumb/v7e-m/fpv4-sp/hard/libc.a(lib_a-localeconv.o)
 .debug_frame   0x0000000000006bb4       0xb0 /home/tech/ti/ccsv7/tools/compiler/gcc-arm-none-eabi-6-2017-q1-update/bin/../lib/gcc/arm-none-eabi/6.3.1/../../../../arm-none-eabi/lib/thumb/v7e-m/fpv4-sp/hard/libc.a(lib_a-lock.o)
 .debug_frame   0x0000000000006c64       0x68 /home/tech/ti/ccsv7/tools/compiler/gcc-arm-none-eabi-6-2017-q1-update/bin/../lib/gcc/arm-none-eabi/6.3.1/../../../../arm-none-eabi/lib/thumb/v7e-m/fpv4-sp/hard/libc.a(lib_a-makebuf.o)
 .debug_frame   0x0000000000006ccc       0x58 /home/tech/ti/ccsv7/tools/compiler/gcc-arm-none-eabi-6-2017-q1-update/bin/../lib/gcc/arm-none-eabi/6.3.1/../../../../arm-none-eabi/lib/thumb/v7e-m/fpv4-sp/hard/libc.a(lib_a-mallocr.o)
 .debug_frame   0x0000000000006d24       0x4c /home/tech/ti/ccsv7/tools/compiler/gcc-arm-none-eabi-6-2017-q1-update/bin/../lib/gcc/arm-none-eabi/6.3.1/../../../../arm-none-eabi/lib/thumb/v7e-m/fpv4-sp/hard/libc.a(lib_a-mbtowc_r.o)
 .debug_frame   0x0000000000006d70       0x30 /home/tech/ti/ccsv7/tools/compiler/gcc-arm-none-eabi-6-2017-q1-update/bin/../lib/gcc/arm-none-eabi/6.3.1/../../../../arm-none-eabi/lib/thumb/v7e-m/fpv4-sp/hard/libc.a(lib_a-mlock.o)
 .debug_frame   0x0000000000006da0      0x25c /home/tech/ti/ccsv7/tools/compiler/gcc-arm-none-eabi-6-2017-q1-update/bin/../lib/gcc/arm-none-eabi/6.3.1/../../../../arm-none-eabi/lib/thumb/v7e-m/fpv4-sp/hard/libc.a(lib_a-mprec.o)
 .debug_frame   0x0000000000006ffc       0x50 /home/tech/ti/ccsv7/tools/compiler/gcc-arm-none-eabi-6-2017-q1-update/bin/../lib/gcc/arm-none-eabi/6.3.1/../../../../arm-none-eabi/lib/thumb/v7e-m/fpv4-sp/hard/libc.a(lib_a-putc.o)
 .debug_frame   0x000000000000704c       0x2c /home/tech/ti/ccsv7/tools/compiler/gcc-arm-none-eabi-6-2017-q1-update/bin/../lib/gcc/arm-none-eabi/6.3.1/../../../../arm-none-eabi/lib/thumb/v7e-m/fpv4-sp/hard/libc.a(lib_a-sbrkr.o)
 .debug_frame   0x0000000000007078       0x20 /home/tech/ti/ccsv7/tools/compiler/gcc-arm-none-eabi-6-2017-q1-update/bin/../lib/gcc/arm-none-eabi/6.3.1/../../../../arm-none-eabi/lib/thumb/v7e-m/fpv4-sp/hard/libc.a(lib_a-sf_nan.o)
 .debug_frame   0x0000000000007098       0x88 /home/tech/ti/ccsv7/tools/compiler/gcc-arm-none-eabi-6-2017-q1-update/bin/../lib/gcc/arm-none-eabi/6.3.1/../../../../arm-none-eabi/lib/thumb/v7e-m/fpv4-sp/hard/libc.a(lib_a-stdio.o)
 .debug_frame   0x0000000000007120       0x68 /home/tech/ti/ccsv7/tools/compiler/gcc-arm-none-eabi-6-2017-q1-update/bin/../lib/gcc/arm-none-eabi/6.3.1/../../../../arm-none-eabi/lib/thumb/v7e-m/fpv4-sp/hard/libc.a(lib_a-strcmp.o)
 .debug_frame   0x0000000000007188       0x54 /home/tech/ti/ccsv7/tools/compiler/gcc-arm-none-eabi-6-2017-q1-update/bin/../lib/gcc/arm-none-eabi/6.3.1/../../../../arm-none-eabi/lib/thumb/v7e-m/fpv4-sp/hard/libc.a(lib_a-strncmp.o)
 .debug_frame   0x00000000000071dc       0x78 /home/tech/ti/ccsv7/tools/compiler/gcc-arm-none-eabi-6-2017-q1-update/bin/../lib/gcc/arm-none-eabi/6.3.1/../../../../arm-none-eabi/lib/thumb/v7e-m/fpv4-sp/hard/libc.a(lib_a-svfiprintf.o)
 .debug_frame   0x0000000000007254       0xd8 /home/tech/ti/ccsv7/tools/compiler/gcc-arm-none-eabi-6-2017-q1-update/bin/../lib/gcc/arm-none-eabi/6.3.1/../../../../arm-none-eabi/lib/thumb/v7e-m/fpv4-sp/hard/libc.a(lib_a-vfiprintf.o)
 .debug_frame   0x000000000000732c       0x40 /home/tech/ti/ccsv7/tools/compiler/gcc-arm-none-eabi-6-2017-q1-update/bin/../lib/gcc/arm-none-eabi/6.3.1/../../../../arm-none-eabi/lib/thumb/v7e-m/fpv4-sp/hard/libc.a(lib_a-wbuf.o)
 .debug_frame   0x000000000000736c       0x3c /home/tech/ti/ccsv7/tools/compiler/gcc-arm-none-eabi-6-2017-q1-update/bin/../lib/gcc/arm-none-eabi/6.3.1/../../../../arm-none-eabi/lib/thumb/v7e-m/fpv4-sp/hard/libc.a(lib_a-wctomb_r.o)
 .debug_frame   0x00000000000073a8       0x2c /home/tech/ti/ccsv7/tools/compiler/gcc-arm-none-eabi-6-2017-q1-update/bin/../lib/gcc/arm-none-eabi/6.3.1/../../../../arm-none-eabi/lib/thumb/v7e-m/fpv4-sp/hard/libc.a(lib_a-writer.o)
 .debug_frame   0x00000000000073d4       0x34 /home/tech/ti/ccsv7/tools/compiler/gcc-arm-none-eabi-6-2017-q1-update/bin/../lib/gcc/arm-none-eabi/6.3.1/../../../../arm-none-eabi/lib/thumb/v7e-m/fpv4-sp/hard/libc.a(lib_a-__atexit.o)
 .debug_frame   0x0000000000007408       0x28 /home/tech/ti/ccsv7/tools/compiler/gcc-arm-none-eabi-6-2017-q1-update/bin/../lib/gcc/arm-none-eabi/6.3.1/../../../../arm-none-eabi/lib/thumb/v7e-m/fpv4-sp/hard/libc.a(lib_a-callocr.o)
 .debug_frame   0x0000000000007430       0x2c /home/tech/ti/ccsv7/tools/compiler/gcc-arm-none-eabi-6-2017-q1-update/bin/../lib/gcc/arm-none-eabi/6.3.1/../../../../arm-none-eabi/lib/thumb/v7e-m/fpv4-sp/hard/libc.a(lib_a-closer.o)
 .debug_frame   0x000000000000745c       0x3c /home/tech/ti/ccsv7/tools/compiler/gcc-arm-none-eabi-6-2017-q1-update/bin/../lib/gcc/arm-none-eabi/6.3.1/../../../../arm-none-eabi/lib/thumb/v7e-m/fpv4-sp/hard/libc.a(lib_a-fclose.o)
 .debug_frame   0x0000000000007498       0x94 /home/tech/ti/ccsv7/tools/compiler/gcc-arm-none-eabi-6-2017-q1-update/bin/../lib/gcc/arm-none-eabi/6.3.1/../../../../arm-none-eabi/lib/thumb/v7e-m/fpv4-sp/hard/libc.a(lib_a-fputwc.o)
 .debug_frame   0x000000000000752c       0x2c /home/tech/ti/ccsv7/tools/compiler/gcc-arm-none-eabi-6-2017-q1-update/bin/../lib/gcc/arm-none-eabi/6.3.1/../../../../arm-none-eabi/lib/thumb/v7e-m/fpv4-sp/hard/libc.a(lib_a-fstatr.o)
 .debug_frame   0x0000000000007558       0x68 /home/tech/ti/ccsv7/tools/compiler/gcc-arm-none-eabi-6-2017-q1-update/bin/../lib/gcc/arm-none-eabi/6.3.1/../../../../arm-none-eabi/lib/thumb/v7e-m/fpv4-sp/hard/libc.a(lib_a-fvwrite.o)
 .debug_frame   0x00000000000075c0       0x2c /home/tech/ti/ccsv7/tools/compiler/gcc-arm-none-eabi-6-2017-q1-update/bin/../lib/gcc/arm-none-eabi/6.3.1/../../../../arm-none-eabi/lib/thumb/v7e-m/fpv4-sp/hard/libc.a(lib_a-isattyr.o)
 .debug_frame   0x00000000000075ec       0x2c /home/tech/ti/ccsv7/tools/compiler/gcc-arm-none-eabi-6-2017-q1-update/bin/../lib/gcc/arm-none-eabi/6.3.1/../../../../arm-none-eabi/lib/thumb/v7e-m/fpv4-sp/hard/libc.a(lib_a-lseekr.o)
 .debug_frame   0x0000000000007618       0x30 /home/tech/ti/ccsv7/tools/compiler/gcc-arm-none-eabi-6-2017-q1-update/bin/../lib/gcc/arm-none-eabi/6.3.1/../../../../arm-none-eabi/lib/thumb/v7e-m/fpv4-sp/hard/libc.a(lib_a-memmove.o)
 .debug_frame   0x0000000000007648       0x2c /home/tech/ti/ccsv7/tools/compiler/gcc-arm-none-eabi-6-2017-q1-update/bin/../lib/gcc/arm-none-eabi/6.3.1/../../../../arm-none-eabi/lib/thumb/v7e-m/fpv4-sp/hard/libc.a(lib_a-readr.o)
 .debug_frame   0x0000000000007674       0x68 /home/tech/ti/ccsv7/tools/compiler/gcc-arm-none-eabi-6-2017-q1-update/bin/../lib/gcc/arm-none-eabi/6.3.1/../../../../arm-none-eabi/lib/thumb/v7e-m/fpv4-sp/hard/libc.a(lib_a-reallocr.o)
 .debug_frame   0x00000000000076dc       0x58 /home/tech/ti/ccsv7/tools/compiler/gcc-arm-none-eabi-6-2017-q1-update/bin/../lib/gcc/arm-none-eabi/6.3.1/../../../../arm-none-eabi/lib/thumb/v7e-m/fpv4-sp/hard/libc.a(lib_a-reent.o)
 .debug_frame   0x0000000000007734       0x5c /home/tech/ti/ccsv7/tools/compiler/gcc-arm-none-eabi-6-2017-q1-update/bin/../lib/gcc/arm-none-eabi/6.3.1/../../../../arm-none-eabi/lib/thumb/v7e-m/fpv4-sp/hard/libc.a(lib_a-wcrtomb.o)
 .debug_frame   0x0000000000007790      0x388 /home/tech/ti/ccsv7/tools/compiler/gcc-arm-none-eabi-6-2017-q1-update/bin/../lib/gcc/arm-none-eabi/6.3.1/../../../../arm-none-eabi/lib/thumb/v7e-m/fpv4-sp/hard/librdimon.a(rdimon-syscalls.o)
 .debug_frame   0x0000000000007b18       0x20 /home/tech/ti/ccsv7/tools/compiler/gcc-arm-none-eabi-6-2017-q1-update/bin/../lib/gcc/arm-none-eabi/6.3.1/../../../../arm-none-eabi/lib/thumb/v7e-m/fpv4-sp/hard/librdimon.a(rdimon-_exit.o)
 .debug_frame   0x0000000000007b38       0x2c /home/tech/ti/ccsv7/tools/compiler/gcc-arm-none-eabi-6-2017-q1-update/bin/../lib/gcc/arm-none-eabi/6.3.1/../../../../arm-none-eabi/lib/thumb/v7e-m/fpv4-sp/hard/librdimon.a(rdimon-_kill.o)
 .debug_frame   0x0000000000007b64       0x20 /home/tech/ti/ccsv7/tools/compiler/gcc-arm-none-eabi-6-2017-q1-update/bin/../lib/gcc/arm-none-eabi/6.3.1/../../../../arm-none-eabi/lib/thumb/v7e-m/fpv4-sp/hard/libc.a(lib_a-errno.o)
 .debug_frame   0x0000000000007b84       0xac /home/tech/ti/ccsv7/tools/compiler/gcc-arm-none-eabi-6-2017-q1-update/bin/../lib/gcc/arm-none-eabi/6.3.1/thumb/v7e-m/fpv4-sp/hard/libgcc.a(_arm_addsubdf3.o)
 .debug_frame   0x0000000000007c30       0x50 /home/tech/ti/ccsv7/tools/compiler/gcc-arm-none-eabi-6-2017-q1-update/bin/../lib/gcc/arm-none-eabi/6.3.1/thumb/v7e-m/fpv4-sp/hard/libgcc.a(_arm_muldivdf3.o)
 .debug_frame   0x0000000000007c80       0xc4 /home/tech/ti/ccsv7/tools/compiler/gcc-arm-none-eabi-6-2017-q1-update/bin/../lib/gcc/arm-none-eabi/6.3.1/thumb/v7e-m/fpv4-sp/hard/libgcc.a(_arm_cmpdf2.o)
 .debug_frame   0x0000000000007d44       0x20 /home/tech/ti/ccsv7/tools/compiler/gcc-arm-none-eabi-6-2017-q1-update/bin/../lib/gcc/arm-none-eabi/6.3.1/thumb/v7e-m/fpv4-sp/hard/libgcc.a(_arm_unorddf2.o)
 .debug_frame   0x0000000000007d64       0x24 /home/tech/ti/ccsv7/tools/compiler/gcc-arm-none-eabi-6-2017-q1-update/bin/../lib/gcc/arm-none-eabi/6.3.1/thumb/v7e-m/fpv4-sp/hard/libgcc.a(_arm_fixdfsi.o)
 .debug_frame   0x0000000000007d88       0x24 /home/tech/ti/ccsv7/tools/compiler/gcc-arm-none-eabi-6-2017-q1-update/bin/../lib/gcc/arm-none-eabi/6.3.1/thumb/v7e-m/fpv4-sp/hard/libgcc.a(_arm_fixunsdfsi.o)
 .debug_frame   0x0000000000007dac       0x24 /home/tech/ti/ccsv7/tools/compiler/gcc-arm-none-eabi-6-2017-q1-update/bin/../lib/gcc/arm-none-eabi/6.3.1/thumb/v7e-m/fpv4-sp/hard/libgcc.a(_arm_truncdfsf2.o)
 .debug_frame   0x0000000000007dd0       0x2c /home/tech/ti/ccsv7/tools/compiler/gcc-arm-none-eabi-6-2017-q1-update/bin/../lib/gcc/arm-none-eabi/6.3.1/thumb/v7e-m/fpv4-sp/hard/libgcc.a(_aeabi_uldivmod.o)
 .debug_frame   0x0000000000007dfc       0x34 /home/tech/ti/ccsv7/tools/compiler/gcc-arm-none-eabi-6-2017-q1-update/bin/../lib/gcc/arm-none-eabi/6.3.1/thumb/v7e-m/fpv4-sp/hard/libgcc.a(_udivmoddi4.o)

.debug_pubnames
                0x0000000000000000     0x200d
 .debug_pubnames
                0x0000000000000000       0x31 ../ccs/Debug/driverlib.lib(gpio.obj)
 .debug_pubnames
                0x0000000000000031       0x55 ../ccs/Debug/driverlib.lib(gpio.obj)
 .debug_pubnames
                0x0000000000000086       0x32 ../ccs/Debug/driverlib.lib(gpio.obj)
 .debug_pubnames
                0x00000000000000b8       0x2b ../ccs/Debug/driverlib.lib(gpio.obj)
 .debug_pubnames
                0x00000000000000e3       0x23 ../ccs/Debug/driverlib.lib(gpio.obj)
 .debug_pubnames
                0x0000000000000106       0x28 ../ccs/Debug/driverlib.lib(gpio.obj)
 .debug_pubnames
                0x000000000000012e       0x25 ../ccs/Debug/driverlib.lib(gpio.obj)
 .debug_pubnames
                0x0000000000000153       0x27 ../ccs/Debug/driverlib.lib(gpio.obj)
 .debug_pubnames
                0x000000000000017a       0x29 ../ccs/Debug/driverlib.lib(gpio.obj)
 .debug_pubnames
                0x00000000000001a3       0x2a ../ccs/Debug/driverlib.lib(gpio.obj)
 .debug_pubnames
                0x00000000000001cd       0x2c ../ccs/Debug/driverlib.lib(gpio.obj)
 .debug_pubnames
                0x00000000000001f9       0x2b ../ccs/Debug/driverlib.lib(gpio.obj)
 .debug_pubnames
                0x0000000000000224       0x26 ../ccs/Debug/driverlib.lib(gpio.obj)
 .debug_pubnames
                0x000000000000024a       0x27 ../ccs/Debug/driverlib.lib(gpio.obj)
 .debug_pubnames
                0x0000000000000271       0x27 ../ccs/Debug/driverlib.lib(gpio.obj)
 .debug_pubnames
                0x0000000000000298       0x25 ../ccs/Debug/driverlib.lib(gpio.obj)
 .debug_pubnames
                0x00000000000002bd       0x25 ../ccs/Debug/driverlib.lib(gpio.obj)
 .debug_pubnames
                0x00000000000002e2       0x25 ../ccs/Debug/driverlib.lib(gpio.obj)
 .debug_pubnames
                0x0000000000000307       0x29 ../ccs/Debug/driverlib.lib(gpio.obj)
 .debug_pubnames
                0x0000000000000330       0x25 ../ccs/Debug/driverlib.lib(gpio.obj)
 .debug_pubnames
                0x0000000000000355       0x28 ../ccs/Debug/driverlib.lib(gpio.obj)
 .debug_pubnames
                0x000000000000037d       0x25 ../ccs/Debug/driverlib.lib(gpio.obj)
 .debug_pubnames
                0x00000000000003a2       0x31 ../ccs/Debug/driverlib.lib(gpio.obj)
 .debug_pubnames
                0x00000000000003d3       0x2e ../ccs/Debug/driverlib.lib(gpio.obj)
 .debug_pubnames
                0x0000000000000401       0x2c ../ccs/Debug/driverlib.lib(gpio.obj)
 .debug_pubnames
                0x000000000000042d       0x2b ../ccs/Debug/driverlib.lib(gpio.obj)
 .debug_pubnames
                0x0000000000000458       0x2d ../ccs/Debug/driverlib.lib(gpio.obj)
 .debug_pubnames
                0x0000000000000485       0x2d ../ccs/Debug/driverlib.lib(gpio.obj)
 .debug_pubnames
                0x00000000000004b2       0x25 ../ccs/Debug/driverlib.lib(gpio.obj)
 .debug_pubnames
                0x00000000000004d7       0x29 ../ccs/Debug/driverlib.lib(gpio.obj)
 .debug_pubnames
                0x0000000000000500       0x32 ../ccs/Debug/driverlib.lib(gpio.obj)
 .debug_pubnames
                0x0000000000000532       0x2c ../ccs/Debug/driverlib.lib(gpio.obj)
 .debug_pubnames
                0x000000000000055e       0x25 ../ccs/Debug/driverlib.lib(gpio.obj)
 .debug_pubnames
                0x0000000000000583       0x25 ../ccs/Debug/driverlib.lib(gpio.obj)
 .debug_pubnames
                0x00000000000005a8       0x22 ../ccs/Debug/driverlib.lib(gpio.obj)
 .debug_pubnames
                0x00000000000005ca       0x27 ../ccs/Debug/driverlib.lib(gpio.obj)
 .debug_pubnames
                0x00000000000005f1       0x27 ../ccs/Debug/driverlib.lib(gpio.obj)
 .debug_pubnames
                0x0000000000000618       0x28 ../ccs/Debug/driverlib.lib(gpio.obj)
 .debug_pubnames
                0x0000000000000640       0x2b ../ccs/Debug/driverlib.lib(gpio.obj)
 .debug_pubnames
                0x000000000000066b       0x28 ../ccs/Debug/driverlib.lib(gpio.obj)
 .debug_pubnames
                0x0000000000000693       0x25 ../ccs/Debug/driverlib.lib(gpio.obj)
 .debug_pubnames
                0x00000000000006b8       0x25 ../ccs/Debug/driverlib.lib(gpio.obj)
 .debug_pubnames
                0x00000000000006dd       0x24 ../ccs/Debug/driverlib.lib(gpio.obj)
 .debug_pubnames
                0x0000000000000701       0x29 ../ccs/Debug/driverlib.lib(gpio.obj)
 .debug_pubnames
                0x000000000000072a       0x26 ../ccs/Debug/driverlib.lib(gpio.obj)
 .debug_pubnames
                0x0000000000000750       0x24 ../ccs/Debug/driverlib.lib(gpio.obj)
 .debug_pubnames
                0x0000000000000774       0x25 ../ccs/Debug/driverlib.lib(gpio.obj)
 .debug_pubnames
                0x0000000000000799       0x23 ../ccs/Debug/driverlib.lib(gpio.obj)
 .debug_pubnames
                0x00000000000007bc       0x25 ../ccs/Debug/driverlib.lib(gpio.obj)
 .debug_pubnames
                0x00000000000007e1       0x2b ../ccs/Debug/driverlib.lib(gpio.obj)
 .debug_pubnames
                0x000000000000080c       0x2c ../ccs/Debug/driverlib.lib(gpio.obj)
 .debug_pubnames
                0x0000000000000838       0x2b ../ccs/Debug/driverlib.lib(gpio.obj)
 .debug_pubnames
                0x0000000000000863       0x2c ../ccs/Debug/driverlib.lib(gpio.obj)
 .debug_pubnames
                0x000000000000088f       0x28 ../ccs/Debug/driverlib.lib(i2c.obj)
 .debug_pubnames
                0x00000000000008b7       0x47 ../ccs/Debug/driverlib.lib(i2c.obj)
 .debug_pubnames
                0x00000000000008fe       0x31 ../ccs/Debug/driverlib.lib(i2c.obj)
 .debug_pubnames
                0x000000000000092f       0x25 ../ccs/Debug/driverlib.lib(i2c.obj)
 .debug_pubnames
                0x0000000000000954       0x29 ../ccs/Debug/driverlib.lib(i2c.obj)
 .debug_pubnames
                0x000000000000097d       0x25 ../ccs/Debug/driverlib.lib(i2c.obj)
 .debug_pubnames
                0x00000000000009a2       0x2a ../ccs/Debug/driverlib.lib(i2c.obj)
 .debug_pubnames
                0x00000000000009cc       0x28 ../ccs/Debug/driverlib.lib(i2c.obj)
 .debug_pubnames
                0x00000000000009f4       0x2a ../ccs/Debug/driverlib.lib(i2c.obj)
 .debug_pubnames
                0x0000000000000a1e       0x28 ../ccs/Debug/driverlib.lib(i2c.obj)
 .debug_pubnames
                0x0000000000000a46       0x2b ../ccs/Debug/driverlib.lib(i2c.obj)
 .debug_pubnames
                0x0000000000000a71       0x29 ../ccs/Debug/driverlib.lib(i2c.obj)
 .debug_pubnames
                0x0000000000000a9a       0x29 ../ccs/Debug/driverlib.lib(i2c.obj)
 .debug_pubnames
                0x0000000000000ac3       0x27 ../ccs/Debug/driverlib.lib(i2c.obj)
 .debug_pubnames
                0x0000000000000aea       0x25 ../ccs/Debug/driverlib.lib(i2c.obj)
 .debug_pubnames
                0x0000000000000b0f       0x23 ../ccs/Debug/driverlib.lib(i2c.obj)
 .debug_pubnames
                0x0000000000000b32       0x29 ../ccs/Debug/driverlib.lib(i2c.obj)
 .debug_pubnames
                0x0000000000000b5b       0x2a ../ccs/Debug/driverlib.lib(i2c.obj)
 .debug_pubnames
                0x0000000000000b85       0x26 ../ccs/Debug/driverlib.lib(i2c.obj)
 .debug_pubnames
                0x0000000000000bab       0x26 ../ccs/Debug/driverlib.lib(i2c.obj)
 .debug_pubnames
                0x0000000000000bd1       0x26 ../ccs/Debug/driverlib.lib(i2c.obj)
 .debug_pubnames
                0x0000000000000bf7       0x29 ../ccs/Debug/driverlib.lib(i2c.obj)
 .debug_pubnames
                0x0000000000000c20       0x2a ../ccs/Debug/driverlib.lib(i2c.obj)
 .debug_pubnames
                0x0000000000000c4a       0x2a ../ccs/Debug/driverlib.lib(i2c.obj)
 .debug_pubnames
                0x0000000000000c74       0x25 ../ccs/Debug/driverlib.lib(i2c.obj)
 .debug_pubnames
                0x0000000000000c99       0x29 ../ccs/Debug/driverlib.lib(i2c.obj)
 .debug_pubnames
                0x0000000000000cc2       0x2a ../ccs/Debug/driverlib.lib(i2c.obj)
 .debug_pubnames
                0x0000000000000cec       0x2c ../ccs/Debug/driverlib.lib(i2c.obj)
 .debug_pubnames
                0x0000000000000d18       0x2c ../ccs/Debug/driverlib.lib(i2c.obj)
 .debug_pubnames
                0x0000000000000d44       0x2b ../ccs/Debug/driverlib.lib(i2c.obj)
 .debug_pubnames
                0x0000000000000d6f       0x29 ../ccs/Debug/driverlib.lib(i2c.obj)
 .debug_pubnames
                0x0000000000000d98       0x2b ../ccs/Debug/driverlib.lib(i2c.obj)
 .debug_pubnames
                0x0000000000000dc3       0x29 ../ccs/Debug/driverlib.lib(i2c.obj)
 .debug_pubnames
                0x0000000000000dec       0x2c ../ccs/Debug/driverlib.lib(i2c.obj)
 .debug_pubnames
                0x0000000000000e18       0x2a ../ccs/Debug/driverlib.lib(i2c.obj)
 .debug_pubnames
                0x0000000000000e42       0x2a ../ccs/Debug/driverlib.lib(i2c.obj)
 .debug_pubnames
                0x0000000000000e6c       0x28 ../ccs/Debug/driverlib.lib(i2c.obj)
 .debug_pubnames
                0x0000000000000e94       0x26 ../ccs/Debug/driverlib.lib(i2c.obj)
 .debug_pubnames
                0x0000000000000eba       0x2a ../ccs/Debug/driverlib.lib(i2c.obj)
 .debug_pubnames
                0x0000000000000ee4       0x35 ../ccs/Debug/driverlib.lib(i2c.obj)
 .debug_pubnames
                0x0000000000000f19       0x23 ../ccs/Debug/driverlib.lib(i2c.obj)
 .debug_pubnames
                0x0000000000000f3c       0x27 ../ccs/Debug/driverlib.lib(i2c.obj)
 .debug_pubnames
                0x0000000000000f63       0x27 ../ccs/Debug/driverlib.lib(i2c.obj)
 .debug_pubnames
                0x0000000000000f8a       0x27 ../ccs/Debug/driverlib.lib(i2c.obj)
 .debug_pubnames
                0x0000000000000fb1       0x27 ../ccs/Debug/driverlib.lib(i2c.obj)
 .debug_pubnames
                0x0000000000000fd8       0x24 ../ccs/Debug/driverlib.lib(i2c.obj)
 .debug_pubnames
                0x0000000000000ffc       0x27 ../ccs/Debug/driverlib.lib(i2c.obj)
 .debug_pubnames
                0x0000000000001023       0x2e ../ccs/Debug/driverlib.lib(i2c.obj)
 .debug_pubnames
                0x0000000000001051       0x2d ../ccs/Debug/driverlib.lib(i2c.obj)
 .debug_pubnames
                0x000000000000107e       0x28 ../ccs/Debug/driverlib.lib(i2c.obj)
 .debug_pubnames
                0x00000000000010a6       0x27 ../ccs/Debug/driverlib.lib(i2c.obj)
 .debug_pubnames
                0x00000000000010cd       0x27 ../ccs/Debug/driverlib.lib(i2c.obj)
 .debug_pubnames
                0x00000000000010f4       0x25 ../ccs/Debug/driverlib.lib(i2c.obj)
 .debug_pubnames
                0x0000000000001119       0x24 ../ccs/Debug/driverlib.lib(i2c.obj)
 .debug_pubnames
                0x000000000000113d       0x30 ../ccs/Debug/driverlib.lib(i2c.obj)
 .debug_pubnames
                0x000000000000116d       0x25 ../ccs/Debug/driverlib.lib(i2c.obj)
 .debug_pubnames
                0x0000000000001192       0x30 ../ccs/Debug/driverlib.lib(i2c.obj)
 .debug_pubnames
                0x00000000000011c2       0x25 ../ccs/Debug/driverlib.lib(i2c.obj)
 .debug_pubnames
                0x00000000000011e7       0x77 ../ccs/Debug/driverlib.lib(interrupt.obj)
 .debug_pubnames
                0x000000000000125e       0x22 ../ccs/Debug/driverlib.lib(interrupt.obj)
 .debug_pubnames
                0x0000000000001280       0x26 ../ccs/Debug/driverlib.lib(interrupt.obj)
 .debug_pubnames
                0x00000000000012a6       0x29 ../ccs/Debug/driverlib.lib(interrupt.obj)
 .debug_pubnames
                0x00000000000012cf       0x24 ../ccs/Debug/driverlib.lib(interrupt.obj)
 .debug_pubnames
                0x00000000000012f3       0x21 ../ccs/Debug/driverlib.lib(interrupt.obj)
 .debug_pubnames
                0x0000000000001314       0x22 ../ccs/Debug/driverlib.lib(interrupt.obj)
 .debug_pubnames
                0x0000000000001336       0x25 ../ccs/Debug/driverlib.lib(interrupt.obj)
 .debug_pubnames
                0x000000000000135b       0x29 ../ccs/Debug/driverlib.lib(interrupt.obj)
 .debug_pubnames
                0x0000000000001384       0x29 ../ccs/Debug/driverlib.lib(interrupt.obj)
 .debug_pubnames
                0x00000000000013ad       0x2d ../ccs/Debug/driverlib.lib(interrupt.obj)
 .debug_pubnames
                0x00000000000013da       0x2d ../ccs/Debug/driverlib.lib(interrupt.obj)
 .debug_pubnames
                0x0000000000001407       0x25 ../ccs/Debug/driverlib.lib(interrupt.obj)
 .debug_pubnames
                0x000000000000142c       0x21 ../ccs/Debug/driverlib.lib(interrupt.obj)
 .debug_pubnames
                0x000000000000144d       0x23 ../ccs/Debug/driverlib.lib(interrupt.obj)
 .debug_pubnames
                0x0000000000001470       0x26 ../ccs/Debug/driverlib.lib(interrupt.obj)
 .debug_pubnames
                0x0000000000001496       0x27 ../ccs/Debug/driverlib.lib(interrupt.obj)
 .debug_pubnames
                0x00000000000014bd       0x23 ../ccs/Debug/driverlib.lib(interrupt.obj)
 .debug_pubnames
                0x00000000000014e0       0x20 ../ccs/Debug/driverlib.lib(interrupt.obj)
 .debug_pubnames
                0x0000000000001500       0x21 ../ccs/Debug/driverlib.lib(interrupt.obj)
 .debug_pubnames
                0x0000000000001521       0x23 ../ccs/Debug/driverlib.lib(sysctl.obj)
 .debug_pubnames
                0x0000000000001544       0x29 ../ccs/Debug/driverlib.lib(sysctl.obj)
 .debug_pubnames
                0x000000000000156d       0x26 ../ccs/Debug/driverlib.lib(sysctl.obj)
 .debug_pubnames
                0x0000000000001593       0x2c ../ccs/Debug/driverlib.lib(sysctl.obj)
 .debug_pubnames
                0x00000000000015bf       0x2f ../ccs/Debug/driverlib.lib(sysctl.obj)
 .debug_pubnames
                0x00000000000015ee       0x2f ../ccs/Debug/driverlib.lib(sysctl.obj)
 .debug_pubnames
                0x000000000000161d       0x2e ../ccs/Debug/driverlib.lib(sysctl.obj)
 .debug_pubnames
                0x000000000000164b       0x23 ../ccs/Debug/driverlib.lib(sysctl.obj)
 .debug_pubnames
                0x000000000000166e       0x29 ../ccs/Debug/driverlib.lib(sysctl.obj)
 .debug_pubnames
                0x0000000000001697       0x2a ../ccs/Debug/driverlib.lib(sysctl.obj)
 .debug_pubnames
                0x00000000000016c1       0x2a ../ccs/Debug/driverlib.lib(sysctl.obj)
 .debug_pubnames
                0x00000000000016eb       0x22 ../ccs/Debug/driverlib.lib(sysctl.obj)
 .debug_pubnames
                0x000000000000170d       0x28 ../ccs/Debug/driverlib.lib(sysctl.obj)
 .debug_pubnames
                0x0000000000001735       0x2a ../ccs/Debug/driverlib.lib(sysctl.obj)
 .debug_pubnames
                0x000000000000175f       0x2c ../ccs/Debug/driverlib.lib(sysctl.obj)
 .debug_pubnames
                0x000000000000178b       0x2d ../ccs/Debug/driverlib.lib(sysctl.obj)
 .debug_pubnames
                0x00000000000017b8       0x2d ../ccs/Debug/driverlib.lib(sysctl.obj)
 .debug_pubnames
                0x00000000000017e5       0x22 ../ccs/Debug/driverlib.lib(sysctl.obj)
 .debug_pubnames
                0x0000000000001807       0x32 ../ccs/Debug/driverlib.lib(sysctl.obj)
 .debug_pubnames
                0x0000000000001839       0x33 ../ccs/Debug/driverlib.lib(sysctl.obj)
 .debug_pubnames
                0x000000000000186c       0x2c ../ccs/Debug/driverlib.lib(sysctl.obj)
 .debug_pubnames
                0x0000000000001898       0x2c ../ccs/Debug/driverlib.lib(sysctl.obj)
 .debug_pubnames
                0x00000000000018c4       0x2e ../ccs/Debug/driverlib.lib(sysctl.obj)
 .debug_pubnames
                0x00000000000018f2       0x2e ../ccs/Debug/driverlib.lib(sysctl.obj)
 .debug_pubnames
                0x0000000000001920       0x2f ../ccs/Debug/driverlib.lib(sysctl.obj)
 .debug_pubnames
                0x000000000000194f       0x2d ../ccs/Debug/driverlib.lib(sysctl.obj)
 .debug_pubnames
                0x000000000000197c       0x2e ../ccs/Debug/driverlib.lib(sysctl.obj)
 .debug_pubnames
                0x00000000000019aa       0x36 ../ccs/Debug/driverlib.lib(sysctl.obj)
 .debug_pubnames
                0x00000000000019e0       0x37 ../ccs/Debug/driverlib.lib(sysctl.obj)
 .debug_pubnames
                0x0000000000001a17       0x32 ../ccs/Debug/driverlib.lib(sysctl.obj)
 .debug_pubnames
                0x0000000000001a49       0x28 ../ccs/Debug/driverlib.lib(sysctl.obj)
 .debug_pubnames
                0x0000000000001a71       0x28 ../ccs/Debug/driverlib.lib(sysctl.obj)
 .debug_pubnames
                0x0000000000001a99       0x2b ../ccs/Debug/driverlib.lib(sysctl.obj)
 .debug_pubnames
                0x0000000000001ac4       0x26 ../ccs/Debug/driverlib.lib(sysctl.obj)
 .debug_pubnames
                0x0000000000001aea       0x25 ../ccs/Debug/driverlib.lib(sysctl.obj)
 .debug_pubnames
                0x0000000000001b0f       0x2a ../ccs/Debug/driverlib.lib(sysctl.obj)
 .debug_pubnames
                0x0000000000001b39       0x28 ../ccs/Debug/driverlib.lib(sysctl.obj)
 .debug_pubnames
                0x0000000000001b61       0x28 ../ccs/Debug/driverlib.lib(sysctl.obj)
 .debug_pubnames
                0x0000000000001b89       0x2c ../ccs/Debug/driverlib.lib(sysctl.obj)
 .debug_pubnames
                0x0000000000001bb5       0x2c ../ccs/Debug/driverlib.lib(sysctl.obj)
 .debug_pubnames
                0x0000000000001be1       0x2a ../ccs/Debug/driverlib.lib(sysctl.obj)
 .debug_pubnames
                0x0000000000001c0b       0x26 ../ccs/Debug/driverlib.lib(sysctl.obj)
 .debug_pubnames
                0x0000000000001c31       0x28 ../ccs/Debug/driverlib.lib(sysctl.obj)
 .debug_pubnames
                0x0000000000001c59       0x26 ../ccs/Debug/driverlib.lib(sysctl.obj)
 .debug_pubnames
                0x0000000000001c7f       0x27 ../ccs/Debug/driverlib.lib(sysctl.obj)
 .debug_pubnames
                0x0000000000001ca6       0x25 ../ccs/Debug/driverlib.lib(sysctl.obj)
 .debug_pubnames
                0x0000000000001ccb       0x2a ../ccs/Debug/driverlib.lib(sysctl.obj)
 .debug_pubnames
                0x0000000000001cf5       0x2b ../ccs/Debug/driverlib.lib(sysctl.obj)
 .debug_pubnames
                0x0000000000001d20       0x29 ../ccs/Debug/driverlib.lib(sysctl.obj)
 .debug_pubnames
                0x0000000000001d49       0x2f ../ccs/Debug/driverlib.lib(sysctl.obj)
 .debug_pubnames
                0x0000000000001d78       0x2e ../ccs/Debug/driverlib.lib(sysctl.obj)
 .debug_pubnames
                0x0000000000001da6       0x2e ../ccs/Debug/driverlib.lib(sysctl.obj)
 .debug_pubnames
                0x0000000000001dd4       0x34 ../ccs/Debug/driverlib.lib(sysctl.obj)
 .debug_pubnames
                0x0000000000001e08       0x26 ../ccs/Debug/driverlib.lib(sysctl.obj)
 .debug_pubnames
                0x0000000000001e2e       0x25 ../ccs/Debug/driverlib.lib(sysctl.obj)
 .debug_pubnames
                0x0000000000001e53       0x2b ../ccs/Debug/driverlib.lib(sysctl.obj)
 .debug_pubnames
                0x0000000000001e7e       0x25 ../ccs/Debug/driverlib.lib(sysctl.obj)
 .debug_pubnames
                0x0000000000001ea3       0x2a ../ccs/Debug/driverlib.lib(sysctl.obj)
 .debug_pubnames
                0x0000000000001ecd       0x2a ../ccs/Debug/driverlib.lib(sysctl.obj)
 .debug_pubnames
                0x0000000000001ef7       0x29 ../ccs/Debug/driverlib.lib(sysctl.obj)
 .debug_pubnames
                0x0000000000001f20       0x29 ../ccs/Debug/driverlib.lib(sysctl.obj)
 .debug_pubnames
                0x0000000000001f49       0x1d ../ccs/Debug/driverlib.lib(cpu.obj)
 .debug_pubnames
                0x0000000000001f66       0x21 ../ccs/Debug/driverlib.lib(cpu.obj)
 .debug_pubnames
                0x0000000000001f87       0x1f ../ccs/Debug/driverlib.lib(cpu.obj)
 .debug_pubnames
                0x0000000000001fa6       0x1f ../ccs/Debug/driverlib.lib(cpu.obj)
 .debug_pubnames
                0x0000000000001fc5       0x24 ../ccs/Debug/driverlib.lib(cpu.obj)
 .debug_pubnames
                0x0000000000001fe9       0x24 ../ccs/Debug/driverlib.lib(cpu.obj)

.debug_pubtypes
                0x0000000000000000      0x538
 .debug_pubtypes
                0x0000000000000000       0xff ../ccs/Debug/driverlib.lib(gpio.obj)
 .debug_pubtypes
                0x00000000000000ff      0x1c6 ../ccs/Debug/driverlib.lib(gpio.obj)
 .debug_pubtypes
                0x00000000000002c5       0x92 ../ccs/Debug/driverlib.lib(gpio.obj)
 .debug_pubtypes
                0x0000000000000357       0x28 ../ccs/Debug/driverlib.lib(gpio.obj)
 .debug_pubtypes
                0x000000000000037f       0x2c ../ccs/Debug/driverlib.lib(gpio.obj)
 .debug_pubtypes
                0x00000000000003ab       0x28 ../ccs/Debug/driverlib.lib(i2c.obj)
 .debug_pubtypes
                0x00000000000003d3       0x28 ../ccs/Debug/driverlib.lib(interrupt.obj)
 .debug_pubtypes
                0x00000000000003fb       0x28 ../ccs/Debug/driverlib.lib(sysctl.obj)
 .debug_pubtypes
                0x0000000000000423       0xed ../ccs/Debug/driverlib.lib(cpu.obj)
 .debug_pubtypes
                0x0000000000000510       0x28 ../ccs/Debug/driverlib.lib(cpu.obj)
